; Listing generated by Microsoft (R) Optimizing Compiler Version 16.00.30319.01 

	TITLE	C:\Users\Erich\Documents\College\DTB_project\psi46test-master\psi46test-master\cmd.cpp
	.686P
	.XMM
	include listing.inc
	.model	flat

INCLUDELIB LIBCMT
INCLUDELIB OLDNAMES

PUBLIC	?has_denorm@_Num_base@std@@2W4float_denorm_style@2@B ; std::_Num_base::has_denorm
PUBLIC	?has_denorm_loss@_Num_base@std@@2_NB		; std::_Num_base::has_denorm_loss
PUBLIC	?has_infinity@_Num_base@std@@2_NB		; std::_Num_base::has_infinity
PUBLIC	?has_quiet_NaN@_Num_base@std@@2_NB		; std::_Num_base::has_quiet_NaN
PUBLIC	?has_signaling_NaN@_Num_base@std@@2_NB		; std::_Num_base::has_signaling_NaN
PUBLIC	?is_bounded@_Num_base@std@@2_NB			; std::_Num_base::is_bounded
PUBLIC	?is_exact@_Num_base@std@@2_NB			; std::_Num_base::is_exact
PUBLIC	?is_iec559@_Num_base@std@@2_NB			; std::_Num_base::is_iec559
PUBLIC	?is_integer@_Num_base@std@@2_NB			; std::_Num_base::is_integer
PUBLIC	?is_modulo@_Num_base@std@@2_NB			; std::_Num_base::is_modulo
PUBLIC	?is_signed@_Num_base@std@@2_NB			; std::_Num_base::is_signed
PUBLIC	?is_specialized@_Num_base@std@@2_NB		; std::_Num_base::is_specialized
PUBLIC	?tinyness_before@_Num_base@std@@2_NB		; std::_Num_base::tinyness_before
PUBLIC	?traps@_Num_base@std@@2_NB			; std::_Num_base::traps
PUBLIC	?round_style@_Num_base@std@@2W4float_round_style@2@B ; std::_Num_base::round_style
PUBLIC	?digits@_Num_base@std@@2HB			; std::_Num_base::digits
PUBLIC	?digits10@_Num_base@std@@2HB			; std::_Num_base::digits10
PUBLIC	?max_digits10@_Num_base@std@@2HB		; std::_Num_base::max_digits10
PUBLIC	?max_exponent@_Num_base@std@@2HB		; std::_Num_base::max_exponent
PUBLIC	?max_exponent10@_Num_base@std@@2HB		; std::_Num_base::max_exponent10
PUBLIC	?min_exponent@_Num_base@std@@2HB		; std::_Num_base::min_exponent
PUBLIC	?min_exponent10@_Num_base@std@@2HB		; std::_Num_base::min_exponent10
PUBLIC	?radix@_Num_base@std@@2HB			; std::_Num_base::radix
PUBLIC	?is_bounded@_Num_int_base@std@@2_NB		; std::_Num_int_base::is_bounded
PUBLIC	?is_exact@_Num_int_base@std@@2_NB		; std::_Num_int_base::is_exact
PUBLIC	?is_integer@_Num_int_base@std@@2_NB		; std::_Num_int_base::is_integer
PUBLIC	?is_modulo@_Num_int_base@std@@2_NB		; std::_Num_int_base::is_modulo
PUBLIC	?is_specialized@_Num_int_base@std@@2_NB		; std::_Num_int_base::is_specialized
PUBLIC	?radix@_Num_int_base@std@@2HB			; std::_Num_int_base::radix
PUBLIC	?has_denorm@_Num_float_base@std@@2W4float_denorm_style@2@B ; std::_Num_float_base::has_denorm
PUBLIC	?has_denorm_loss@_Num_float_base@std@@2_NB	; std::_Num_float_base::has_denorm_loss
PUBLIC	?has_infinity@_Num_float_base@std@@2_NB		; std::_Num_float_base::has_infinity
PUBLIC	?has_quiet_NaN@_Num_float_base@std@@2_NB	; std::_Num_float_base::has_quiet_NaN
PUBLIC	?has_signaling_NaN@_Num_float_base@std@@2_NB	; std::_Num_float_base::has_signaling_NaN
PUBLIC	?is_bounded@_Num_float_base@std@@2_NB		; std::_Num_float_base::is_bounded
PUBLIC	?is_exact@_Num_float_base@std@@2_NB		; std::_Num_float_base::is_exact
PUBLIC	?is_iec559@_Num_float_base@std@@2_NB		; std::_Num_float_base::is_iec559
PUBLIC	?is_integer@_Num_float_base@std@@2_NB		; std::_Num_float_base::is_integer
PUBLIC	?is_modulo@_Num_float_base@std@@2_NB		; std::_Num_float_base::is_modulo
PUBLIC	?is_signed@_Num_float_base@std@@2_NB		; std::_Num_float_base::is_signed
PUBLIC	?is_specialized@_Num_float_base@std@@2_NB	; std::_Num_float_base::is_specialized
PUBLIC	?tinyness_before@_Num_float_base@std@@2_NB	; std::_Num_float_base::tinyness_before
PUBLIC	?traps@_Num_float_base@std@@2_NB		; std::_Num_float_base::traps
PUBLIC	?round_style@_Num_float_base@std@@2W4float_round_style@2@B ; std::_Num_float_base::round_style
PUBLIC	?radix@_Num_float_base@std@@2HB			; std::_Num_float_base::radix
PUBLIC	?is_signed@?$numeric_limits@D@std@@2_NB		; std::numeric_limits<char>::is_signed
PUBLIC	?digits@?$numeric_limits@D@std@@2HB		; std::numeric_limits<char>::digits
PUBLIC	?digits10@?$numeric_limits@D@std@@2HB		; std::numeric_limits<char>::digits10
PUBLIC	?max_digits10@?$numeric_limits@D@std@@2HB	; std::numeric_limits<char>::max_digits10
PUBLIC	?is_signed@?$numeric_limits@_W@std@@2_NB	; std::numeric_limits<wchar_t>::is_signed
PUBLIC	?digits@?$numeric_limits@_W@std@@2HB		; std::numeric_limits<wchar_t>::digits
PUBLIC	?digits10@?$numeric_limits@_W@std@@2HB		; std::numeric_limits<wchar_t>::digits10
PUBLIC	?max_digits10@?$numeric_limits@_W@std@@2HB	; std::numeric_limits<wchar_t>::max_digits10
PUBLIC	?is_modulo@?$numeric_limits@_N@std@@2_NB	; std::numeric_limits<bool>::is_modulo
PUBLIC	?is_signed@?$numeric_limits@_N@std@@2_NB	; std::numeric_limits<bool>::is_signed
PUBLIC	?digits@?$numeric_limits@_N@std@@2HB		; std::numeric_limits<bool>::digits
PUBLIC	?digits10@?$numeric_limits@_N@std@@2HB		; std::numeric_limits<bool>::digits10
PUBLIC	?max_digits10@?$numeric_limits@_N@std@@2HB	; std::numeric_limits<bool>::max_digits10
PUBLIC	?is_signed@?$numeric_limits@C@std@@2_NB		; std::numeric_limits<signed char>::is_signed
PUBLIC	?digits@?$numeric_limits@C@std@@2HB		; std::numeric_limits<signed char>::digits
PUBLIC	?digits10@?$numeric_limits@C@std@@2HB		; std::numeric_limits<signed char>::digits10
PUBLIC	?max_digits10@?$numeric_limits@C@std@@2HB	; std::numeric_limits<signed char>::max_digits10
PUBLIC	?is_signed@?$numeric_limits@E@std@@2_NB		; std::numeric_limits<unsigned char>::is_signed
PUBLIC	?digits@?$numeric_limits@E@std@@2HB		; std::numeric_limits<unsigned char>::digits
PUBLIC	?digits10@?$numeric_limits@E@std@@2HB		; std::numeric_limits<unsigned char>::digits10
PUBLIC	?max_digits10@?$numeric_limits@E@std@@2HB	; std::numeric_limits<unsigned char>::max_digits10
PUBLIC	?is_signed@?$numeric_limits@F@std@@2_NB		; std::numeric_limits<short>::is_signed
PUBLIC	?digits@?$numeric_limits@F@std@@2HB		; std::numeric_limits<short>::digits
PUBLIC	?digits10@?$numeric_limits@F@std@@2HB		; std::numeric_limits<short>::digits10
PUBLIC	?max_digits10@?$numeric_limits@F@std@@2HB	; std::numeric_limits<short>::max_digits10
PUBLIC	?is_signed@?$numeric_limits@G@std@@2_NB		; std::numeric_limits<unsigned short>::is_signed
PUBLIC	?digits@?$numeric_limits@G@std@@2HB		; std::numeric_limits<unsigned short>::digits
PUBLIC	?digits10@?$numeric_limits@G@std@@2HB		; std::numeric_limits<unsigned short>::digits10
PUBLIC	?max_digits10@?$numeric_limits@G@std@@2HB	; std::numeric_limits<unsigned short>::max_digits10
PUBLIC	?is_signed@?$numeric_limits@H@std@@2_NB		; std::numeric_limits<int>::is_signed
PUBLIC	?digits@?$numeric_limits@H@std@@2HB		; std::numeric_limits<int>::digits
PUBLIC	?digits10@?$numeric_limits@H@std@@2HB		; std::numeric_limits<int>::digits10
PUBLIC	?max_digits10@?$numeric_limits@H@std@@2HB	; std::numeric_limits<int>::max_digits10
PUBLIC	?is_signed@?$numeric_limits@I@std@@2_NB		; std::numeric_limits<unsigned int>::is_signed
PUBLIC	?digits@?$numeric_limits@I@std@@2HB		; std::numeric_limits<unsigned int>::digits
PUBLIC	?digits10@?$numeric_limits@I@std@@2HB		; std::numeric_limits<unsigned int>::digits10
PUBLIC	?max_digits10@?$numeric_limits@I@std@@2HB	; std::numeric_limits<unsigned int>::max_digits10
PUBLIC	?is_signed@?$numeric_limits@J@std@@2_NB		; std::numeric_limits<long>::is_signed
PUBLIC	?digits@?$numeric_limits@J@std@@2HB		; std::numeric_limits<long>::digits
PUBLIC	?digits10@?$numeric_limits@J@std@@2HB		; std::numeric_limits<long>::digits10
PUBLIC	?max_digits10@?$numeric_limits@J@std@@2HB	; std::numeric_limits<long>::max_digits10
PUBLIC	?is_signed@?$numeric_limits@K@std@@2_NB		; std::numeric_limits<unsigned long>::is_signed
PUBLIC	?digits@?$numeric_limits@K@std@@2HB		; std::numeric_limits<unsigned long>::digits
PUBLIC	?digits10@?$numeric_limits@K@std@@2HB		; std::numeric_limits<unsigned long>::digits10
PUBLIC	?max_digits10@?$numeric_limits@K@std@@2HB	; std::numeric_limits<unsigned long>::max_digits10
PUBLIC	?is_signed@?$numeric_limits@_J@std@@2_NB	; std::numeric_limits<__int64>::is_signed
PUBLIC	?digits@?$numeric_limits@_J@std@@2HB		; std::numeric_limits<__int64>::digits
PUBLIC	?digits10@?$numeric_limits@_J@std@@2HB		; std::numeric_limits<__int64>::digits10
PUBLIC	?max_digits10@?$numeric_limits@_J@std@@2HB	; std::numeric_limits<__int64>::max_digits10
PUBLIC	?is_signed@?$numeric_limits@_K@std@@2_NB	; std::numeric_limits<unsigned __int64>::is_signed
PUBLIC	?digits@?$numeric_limits@_K@std@@2HB		; std::numeric_limits<unsigned __int64>::digits
PUBLIC	?digits10@?$numeric_limits@_K@std@@2HB		; std::numeric_limits<unsigned __int64>::digits10
PUBLIC	?max_digits10@?$numeric_limits@_K@std@@2HB	; std::numeric_limits<unsigned __int64>::max_digits10
PUBLIC	?digits@?$numeric_limits@M@std@@2HB		; std::numeric_limits<float>::digits
PUBLIC	?digits10@?$numeric_limits@M@std@@2HB		; std::numeric_limits<float>::digits10
PUBLIC	?max_digits10@?$numeric_limits@M@std@@2HB	; std::numeric_limits<float>::max_digits10
PUBLIC	?max_exponent@?$numeric_limits@M@std@@2HB	; std::numeric_limits<float>::max_exponent
PUBLIC	?max_exponent10@?$numeric_limits@M@std@@2HB	; std::numeric_limits<float>::max_exponent10
PUBLIC	?min_exponent@?$numeric_limits@M@std@@2HB	; std::numeric_limits<float>::min_exponent
PUBLIC	?min_exponent10@?$numeric_limits@M@std@@2HB	; std::numeric_limits<float>::min_exponent10
PUBLIC	?digits@?$numeric_limits@N@std@@2HB		; std::numeric_limits<double>::digits
PUBLIC	?digits10@?$numeric_limits@N@std@@2HB		; std::numeric_limits<double>::digits10
PUBLIC	?max_digits10@?$numeric_limits@N@std@@2HB	; std::numeric_limits<double>::max_digits10
PUBLIC	?max_exponent@?$numeric_limits@N@std@@2HB	; std::numeric_limits<double>::max_exponent
PUBLIC	?max_exponent10@?$numeric_limits@N@std@@2HB	; std::numeric_limits<double>::max_exponent10
PUBLIC	?min_exponent@?$numeric_limits@N@std@@2HB	; std::numeric_limits<double>::min_exponent
PUBLIC	?min_exponent10@?$numeric_limits@N@std@@2HB	; std::numeric_limits<double>::min_exponent10
PUBLIC	?digits@?$numeric_limits@O@std@@2HB		; std::numeric_limits<long double>::digits
PUBLIC	?digits10@?$numeric_limits@O@std@@2HB		; std::numeric_limits<long double>::digits10
PUBLIC	?max_digits10@?$numeric_limits@O@std@@2HB	; std::numeric_limits<long double>::max_digits10
PUBLIC	?max_exponent@?$numeric_limits@O@std@@2HB	; std::numeric_limits<long double>::max_exponent
PUBLIC	?max_exponent10@?$numeric_limits@O@std@@2HB	; std::numeric_limits<long double>::max_exponent10
PUBLIC	?min_exponent@?$numeric_limits@O@std@@2HB	; std::numeric_limits<long double>::min_exponent
PUBLIC	?min_exponent10@?$numeric_limits@O@std@@2HB	; std::numeric_limits<long double>::min_exponent10
PUBLIC	?value@?$integral_constant@_N$0A@@tr1@std@@2_NB	; std::tr1::integral_constant<bool,0>::value
PUBLIC	?value@?$integral_constant@_N$00@tr1@std@@2_NB	; std::tr1::integral_constant<bool,1>::value
PUBLIC	?value@?$integral_constant@I$0A@@tr1@std@@2IB	; std::tr1::integral_constant<unsigned int,0>::value
PUBLIC	?_Rank@?$_Arithmetic_traits@_N@std@@2HB		; std::_Arithmetic_traits<bool>::_Rank
PUBLIC	?_Rank@?$_Arithmetic_traits@D@std@@2HB		; std::_Arithmetic_traits<char>::_Rank
PUBLIC	?_Rank@?$_Arithmetic_traits@C@std@@2HB		; std::_Arithmetic_traits<signed char>::_Rank
PUBLIC	?_Rank@?$_Arithmetic_traits@E@std@@2HB		; std::_Arithmetic_traits<unsigned char>::_Rank
PUBLIC	?_Rank@?$_Arithmetic_traits@F@std@@2HB		; std::_Arithmetic_traits<short>::_Rank
PUBLIC	?_Rank@?$_Arithmetic_traits@G@std@@2HB		; std::_Arithmetic_traits<unsigned short>::_Rank
PUBLIC	?_Rank@?$_Arithmetic_traits@H@std@@2HB		; std::_Arithmetic_traits<int>::_Rank
PUBLIC	?_Rank@?$_Arithmetic_traits@I@std@@2HB		; std::_Arithmetic_traits<unsigned int>::_Rank
PUBLIC	?_Rank@?$_Arithmetic_traits@J@std@@2HB		; std::_Arithmetic_traits<long>::_Rank
PUBLIC	?_Rank@?$_Arithmetic_traits@K@std@@2HB		; std::_Arithmetic_traits<unsigned long>::_Rank
PUBLIC	?_Rank@?$_Arithmetic_traits@_J@std@@2HB		; std::_Arithmetic_traits<__int64>::_Rank
PUBLIC	?_Rank@?$_Arithmetic_traits@_K@std@@2HB		; std::_Arithmetic_traits<unsigned __int64>::_Rank
PUBLIC	?_Rank@?$_Arithmetic_traits@M@std@@2HB		; std::_Arithmetic_traits<float>::_Rank
PUBLIC	?_Rank@?$_Arithmetic_traits@N@std@@2HB		; std::_Arithmetic_traits<double>::_Rank
PUBLIC	?_Rank@?$_Arithmetic_traits@O@std@@2HB		; std::_Arithmetic_traits<long double>::_Rank
PUBLIC	?collate@?$_Locbase@H@std@@2HB			; std::_Locbase<int>::collate
PUBLIC	?ctype@?$_Locbase@H@std@@2HB			; std::_Locbase<int>::ctype
PUBLIC	?monetary@?$_Locbase@H@std@@2HB			; std::_Locbase<int>::monetary
PUBLIC	?numeric@?$_Locbase@H@std@@2HB			; std::_Locbase<int>::numeric
PUBLIC	?time@?$_Locbase@H@std@@2HB			; std::_Locbase<int>::time
PUBLIC	?messages@?$_Locbase@H@std@@2HB			; std::_Locbase<int>::messages
PUBLIC	?all@?$_Locbase@H@std@@2HB			; std::_Locbase<int>::all
PUBLIC	?none@?$_Locbase@H@std@@2HB			; std::_Locbase<int>::none
PUBLIC	?table_size@?$ctype@D@std@@2IB			; std::ctype<char>::table_size
PUBLIC	?skipws@?$_Iosb@H@std@@2W4_Fmtflags@12@B	; std::_Iosb<int>::skipws
PUBLIC	?unitbuf@?$_Iosb@H@std@@2W4_Fmtflags@12@B	; std::_Iosb<int>::unitbuf
PUBLIC	?uppercase@?$_Iosb@H@std@@2W4_Fmtflags@12@B	; std::_Iosb<int>::uppercase
PUBLIC	?showbase@?$_Iosb@H@std@@2W4_Fmtflags@12@B	; std::_Iosb<int>::showbase
PUBLIC	?showpoint@?$_Iosb@H@std@@2W4_Fmtflags@12@B	; std::_Iosb<int>::showpoint
PUBLIC	?showpos@?$_Iosb@H@std@@2W4_Fmtflags@12@B	; std::_Iosb<int>::showpos
PUBLIC	?left@?$_Iosb@H@std@@2W4_Fmtflags@12@B		; std::_Iosb<int>::left
PUBLIC	?right@?$_Iosb@H@std@@2W4_Fmtflags@12@B		; std::_Iosb<int>::right
PUBLIC	?internal@?$_Iosb@H@std@@2W4_Fmtflags@12@B	; std::_Iosb<int>::internal
PUBLIC	?dec@?$_Iosb@H@std@@2W4_Fmtflags@12@B		; std::_Iosb<int>::dec
PUBLIC	?oct@?$_Iosb@H@std@@2W4_Fmtflags@12@B		; std::_Iosb<int>::oct
PUBLIC	?hex@?$_Iosb@H@std@@2W4_Fmtflags@12@B		; std::_Iosb<int>::hex
PUBLIC	?scientific@?$_Iosb@H@std@@2W4_Fmtflags@12@B	; std::_Iosb<int>::scientific
PUBLIC	?fixed@?$_Iosb@H@std@@2W4_Fmtflags@12@B		; std::_Iosb<int>::fixed
PUBLIC	?hexfloat@?$_Iosb@H@std@@2W4_Fmtflags@12@B	; std::_Iosb<int>::hexfloat
PUBLIC	?boolalpha@?$_Iosb@H@std@@2W4_Fmtflags@12@B	; std::_Iosb<int>::boolalpha
PUBLIC	?_Stdio@?$_Iosb@H@std@@2W4_Fmtflags@12@B	; std::_Iosb<int>::_Stdio
PUBLIC	?adjustfield@?$_Iosb@H@std@@2W4_Fmtflags@12@B	; std::_Iosb<int>::adjustfield
PUBLIC	?basefield@?$_Iosb@H@std@@2W4_Fmtflags@12@B	; std::_Iosb<int>::basefield
PUBLIC	?floatfield@?$_Iosb@H@std@@2W4_Fmtflags@12@B	; std::_Iosb<int>::floatfield
PUBLIC	?goodbit@?$_Iosb@H@std@@2W4_Iostate@12@B	; std::_Iosb<int>::goodbit
PUBLIC	?eofbit@?$_Iosb@H@std@@2W4_Iostate@12@B		; std::_Iosb<int>::eofbit
PUBLIC	?failbit@?$_Iosb@H@std@@2W4_Iostate@12@B	; std::_Iosb<int>::failbit
PUBLIC	?badbit@?$_Iosb@H@std@@2W4_Iostate@12@B		; std::_Iosb<int>::badbit
PUBLIC	?_Hardfail@?$_Iosb@H@std@@2W4_Iostate@12@B	; std::_Iosb<int>::_Hardfail
PUBLIC	?in@?$_Iosb@H@std@@2W4_Openmode@12@B		; std::_Iosb<int>::in
PUBLIC	?out@?$_Iosb@H@std@@2W4_Openmode@12@B		; std::_Iosb<int>::out
PUBLIC	?ate@?$_Iosb@H@std@@2W4_Openmode@12@B		; std::_Iosb<int>::ate
PUBLIC	?app@?$_Iosb@H@std@@2W4_Openmode@12@B		; std::_Iosb<int>::app
PUBLIC	?trunc@?$_Iosb@H@std@@2W4_Openmode@12@B		; std::_Iosb<int>::trunc
PUBLIC	?_Nocreate@?$_Iosb@H@std@@2W4_Openmode@12@B	; std::_Iosb<int>::_Nocreate
PUBLIC	?_Noreplace@?$_Iosb@H@std@@2W4_Openmode@12@B	; std::_Iosb<int>::_Noreplace
PUBLIC	?binary@?$_Iosb@H@std@@2W4_Openmode@12@B	; std::_Iosb<int>::binary
PUBLIC	?beg@?$_Iosb@H@std@@2W4_Seekdir@12@B		; std::_Iosb<int>::beg
PUBLIC	?cur@?$_Iosb@H@std@@2W4_Seekdir@12@B		; std::_Iosb<int>::cur
PUBLIC	?end@?$_Iosb@H@std@@2W4_Seekdir@12@B		; std::_Iosb<int>::end
;	COMDAT ?end@?$_Iosb@H@std@@2W4_Seekdir@12@B
CONST	SEGMENT
?end@?$_Iosb@H@std@@2W4_Seekdir@12@B DD 02H		; std::_Iosb<int>::end
CONST	ENDS
;	COMDAT ?cur@?$_Iosb@H@std@@2W4_Seekdir@12@B
CONST	SEGMENT
?cur@?$_Iosb@H@std@@2W4_Seekdir@12@B DD 01H		; std::_Iosb<int>::cur
CONST	ENDS
;	COMDAT ?beg@?$_Iosb@H@std@@2W4_Seekdir@12@B
CONST	SEGMENT
?beg@?$_Iosb@H@std@@2W4_Seekdir@12@B DD 00H		; std::_Iosb<int>::beg
CONST	ENDS
;	COMDAT ?binary@?$_Iosb@H@std@@2W4_Openmode@12@B
CONST	SEGMENT
?binary@?$_Iosb@H@std@@2W4_Openmode@12@B DD 020H	; std::_Iosb<int>::binary
CONST	ENDS
;	COMDAT ?_Noreplace@?$_Iosb@H@std@@2W4_Openmode@12@B
CONST	SEGMENT
?_Noreplace@?$_Iosb@H@std@@2W4_Openmode@12@B DD 080H	; std::_Iosb<int>::_Noreplace
CONST	ENDS
;	COMDAT ?_Nocreate@?$_Iosb@H@std@@2W4_Openmode@12@B
CONST	SEGMENT
?_Nocreate@?$_Iosb@H@std@@2W4_Openmode@12@B DD 040H	; std::_Iosb<int>::_Nocreate
CONST	ENDS
;	COMDAT ?trunc@?$_Iosb@H@std@@2W4_Openmode@12@B
CONST	SEGMENT
?trunc@?$_Iosb@H@std@@2W4_Openmode@12@B DD 010H		; std::_Iosb<int>::trunc
CONST	ENDS
;	COMDAT ?app@?$_Iosb@H@std@@2W4_Openmode@12@B
CONST	SEGMENT
?app@?$_Iosb@H@std@@2W4_Openmode@12@B DD 08H		; std::_Iosb<int>::app
CONST	ENDS
;	COMDAT ?ate@?$_Iosb@H@std@@2W4_Openmode@12@B
CONST	SEGMENT
?ate@?$_Iosb@H@std@@2W4_Openmode@12@B DD 04H		; std::_Iosb<int>::ate
CONST	ENDS
;	COMDAT ?out@?$_Iosb@H@std@@2W4_Openmode@12@B
CONST	SEGMENT
?out@?$_Iosb@H@std@@2W4_Openmode@12@B DD 02H		; std::_Iosb<int>::out
CONST	ENDS
;	COMDAT ?in@?$_Iosb@H@std@@2W4_Openmode@12@B
CONST	SEGMENT
?in@?$_Iosb@H@std@@2W4_Openmode@12@B DD 01H		; std::_Iosb<int>::in
CONST	ENDS
;	COMDAT ?_Hardfail@?$_Iosb@H@std@@2W4_Iostate@12@B
CONST	SEGMENT
?_Hardfail@?$_Iosb@H@std@@2W4_Iostate@12@B DD 010H	; std::_Iosb<int>::_Hardfail
CONST	ENDS
;	COMDAT ?badbit@?$_Iosb@H@std@@2W4_Iostate@12@B
CONST	SEGMENT
?badbit@?$_Iosb@H@std@@2W4_Iostate@12@B DD 04H		; std::_Iosb<int>::badbit
CONST	ENDS
;	COMDAT ?failbit@?$_Iosb@H@std@@2W4_Iostate@12@B
CONST	SEGMENT
?failbit@?$_Iosb@H@std@@2W4_Iostate@12@B DD 02H		; std::_Iosb<int>::failbit
CONST	ENDS
;	COMDAT ?eofbit@?$_Iosb@H@std@@2W4_Iostate@12@B
CONST	SEGMENT
?eofbit@?$_Iosb@H@std@@2W4_Iostate@12@B DD 01H		; std::_Iosb<int>::eofbit
CONST	ENDS
;	COMDAT ?goodbit@?$_Iosb@H@std@@2W4_Iostate@12@B
CONST	SEGMENT
?goodbit@?$_Iosb@H@std@@2W4_Iostate@12@B DD 00H		; std::_Iosb<int>::goodbit
CONST	ENDS
;	COMDAT ?floatfield@?$_Iosb@H@std@@2W4_Fmtflags@12@B
CONST	SEGMENT
?floatfield@?$_Iosb@H@std@@2W4_Fmtflags@12@B DD 03000H	; std::_Iosb<int>::floatfield
CONST	ENDS
;	COMDAT ?basefield@?$_Iosb@H@std@@2W4_Fmtflags@12@B
CONST	SEGMENT
?basefield@?$_Iosb@H@std@@2W4_Fmtflags@12@B DD 0e00H	; std::_Iosb<int>::basefield
CONST	ENDS
;	COMDAT ?adjustfield@?$_Iosb@H@std@@2W4_Fmtflags@12@B
CONST	SEGMENT
?adjustfield@?$_Iosb@H@std@@2W4_Fmtflags@12@B DD 01c0H	; std::_Iosb<int>::adjustfield
CONST	ENDS
;	COMDAT ?_Stdio@?$_Iosb@H@std@@2W4_Fmtflags@12@B
CONST	SEGMENT
?_Stdio@?$_Iosb@H@std@@2W4_Fmtflags@12@B DD 08000H	; std::_Iosb<int>::_Stdio
CONST	ENDS
;	COMDAT ?boolalpha@?$_Iosb@H@std@@2W4_Fmtflags@12@B
CONST	SEGMENT
?boolalpha@?$_Iosb@H@std@@2W4_Fmtflags@12@B DD 04000H	; std::_Iosb<int>::boolalpha
CONST	ENDS
;	COMDAT ?hexfloat@?$_Iosb@H@std@@2W4_Fmtflags@12@B
CONST	SEGMENT
?hexfloat@?$_Iosb@H@std@@2W4_Fmtflags@12@B DD 03000H	; std::_Iosb<int>::hexfloat
CONST	ENDS
;	COMDAT ?fixed@?$_Iosb@H@std@@2W4_Fmtflags@12@B
CONST	SEGMENT
?fixed@?$_Iosb@H@std@@2W4_Fmtflags@12@B DD 02000H	; std::_Iosb<int>::fixed
CONST	ENDS
;	COMDAT ?scientific@?$_Iosb@H@std@@2W4_Fmtflags@12@B
CONST	SEGMENT
?scientific@?$_Iosb@H@std@@2W4_Fmtflags@12@B DD 01000H	; std::_Iosb<int>::scientific
CONST	ENDS
;	COMDAT ?hex@?$_Iosb@H@std@@2W4_Fmtflags@12@B
CONST	SEGMENT
?hex@?$_Iosb@H@std@@2W4_Fmtflags@12@B DD 0800H		; std::_Iosb<int>::hex
CONST	ENDS
;	COMDAT ?oct@?$_Iosb@H@std@@2W4_Fmtflags@12@B
CONST	SEGMENT
?oct@?$_Iosb@H@std@@2W4_Fmtflags@12@B DD 0400H		; std::_Iosb<int>::oct
CONST	ENDS
;	COMDAT ?dec@?$_Iosb@H@std@@2W4_Fmtflags@12@B
CONST	SEGMENT
?dec@?$_Iosb@H@std@@2W4_Fmtflags@12@B DD 0200H		; std::_Iosb<int>::dec
CONST	ENDS
;	COMDAT ?internal@?$_Iosb@H@std@@2W4_Fmtflags@12@B
CONST	SEGMENT
?internal@?$_Iosb@H@std@@2W4_Fmtflags@12@B DD 0100H	; std::_Iosb<int>::internal
CONST	ENDS
;	COMDAT ?right@?$_Iosb@H@std@@2W4_Fmtflags@12@B
CONST	SEGMENT
?right@?$_Iosb@H@std@@2W4_Fmtflags@12@B DD 080H		; std::_Iosb<int>::right
CONST	ENDS
;	COMDAT ?left@?$_Iosb@H@std@@2W4_Fmtflags@12@B
CONST	SEGMENT
?left@?$_Iosb@H@std@@2W4_Fmtflags@12@B DD 040H		; std::_Iosb<int>::left
CONST	ENDS
;	COMDAT ?showpos@?$_Iosb@H@std@@2W4_Fmtflags@12@B
CONST	SEGMENT
?showpos@?$_Iosb@H@std@@2W4_Fmtflags@12@B DD 020H	; std::_Iosb<int>::showpos
CONST	ENDS
;	COMDAT ?showpoint@?$_Iosb@H@std@@2W4_Fmtflags@12@B
CONST	SEGMENT
?showpoint@?$_Iosb@H@std@@2W4_Fmtflags@12@B DD 010H	; std::_Iosb<int>::showpoint
CONST	ENDS
;	COMDAT ?showbase@?$_Iosb@H@std@@2W4_Fmtflags@12@B
CONST	SEGMENT
?showbase@?$_Iosb@H@std@@2W4_Fmtflags@12@B DD 08H	; std::_Iosb<int>::showbase
CONST	ENDS
;	COMDAT ?uppercase@?$_Iosb@H@std@@2W4_Fmtflags@12@B
CONST	SEGMENT
?uppercase@?$_Iosb@H@std@@2W4_Fmtflags@12@B DD 04H	; std::_Iosb<int>::uppercase
CONST	ENDS
;	COMDAT ?unitbuf@?$_Iosb@H@std@@2W4_Fmtflags@12@B
CONST	SEGMENT
?unitbuf@?$_Iosb@H@std@@2W4_Fmtflags@12@B DD 02H	; std::_Iosb<int>::unitbuf
CONST	ENDS
;	COMDAT ?skipws@?$_Iosb@H@std@@2W4_Fmtflags@12@B
CONST	SEGMENT
?skipws@?$_Iosb@H@std@@2W4_Fmtflags@12@B DD 01H		; std::_Iosb<int>::skipws
CONST	ENDS
;	COMDAT ?table_size@?$ctype@D@std@@2IB
CONST	SEGMENT
?table_size@?$ctype@D@std@@2IB DD 0100H			; std::ctype<char>::table_size
CONST	ENDS
;	COMDAT ?none@?$_Locbase@H@std@@2HB
CONST	SEGMENT
?none@?$_Locbase@H@std@@2HB DD 00H			; std::_Locbase<int>::none
CONST	ENDS
;	COMDAT ?all@?$_Locbase@H@std@@2HB
CONST	SEGMENT
?all@?$_Locbase@H@std@@2HB DD 03fH			; std::_Locbase<int>::all
CONST	ENDS
;	COMDAT ?messages@?$_Locbase@H@std@@2HB
CONST	SEGMENT
?messages@?$_Locbase@H@std@@2HB DD 020H			; std::_Locbase<int>::messages
CONST	ENDS
;	COMDAT ?time@?$_Locbase@H@std@@2HB
CONST	SEGMENT
?time@?$_Locbase@H@std@@2HB DD 010H			; std::_Locbase<int>::time
CONST	ENDS
;	COMDAT ?numeric@?$_Locbase@H@std@@2HB
CONST	SEGMENT
?numeric@?$_Locbase@H@std@@2HB DD 08H			; std::_Locbase<int>::numeric
CONST	ENDS
;	COMDAT ?monetary@?$_Locbase@H@std@@2HB
CONST	SEGMENT
?monetary@?$_Locbase@H@std@@2HB DD 04H			; std::_Locbase<int>::monetary
CONST	ENDS
;	COMDAT ?ctype@?$_Locbase@H@std@@2HB
CONST	SEGMENT
?ctype@?$_Locbase@H@std@@2HB DD 02H			; std::_Locbase<int>::ctype
CONST	ENDS
;	COMDAT ?collate@?$_Locbase@H@std@@2HB
CONST	SEGMENT
?collate@?$_Locbase@H@std@@2HB DD 01H			; std::_Locbase<int>::collate
CONST	ENDS
;	COMDAT ?_Rank@?$_Arithmetic_traits@O@std@@2HB
CONST	SEGMENT
?_Rank@?$_Arithmetic_traits@O@std@@2HB DD 09H		; std::_Arithmetic_traits<long double>::_Rank
CONST	ENDS
;	COMDAT ?_Rank@?$_Arithmetic_traits@N@std@@2HB
CONST	SEGMENT
?_Rank@?$_Arithmetic_traits@N@std@@2HB DD 08H		; std::_Arithmetic_traits<double>::_Rank
CONST	ENDS
;	COMDAT ?_Rank@?$_Arithmetic_traits@M@std@@2HB
CONST	SEGMENT
?_Rank@?$_Arithmetic_traits@M@std@@2HB DD 07H		; std::_Arithmetic_traits<float>::_Rank
CONST	ENDS
;	COMDAT ?_Rank@?$_Arithmetic_traits@_K@std@@2HB
CONST	SEGMENT
?_Rank@?$_Arithmetic_traits@_K@std@@2HB DD 06H		; std::_Arithmetic_traits<unsigned __int64>::_Rank
CONST	ENDS
;	COMDAT ?_Rank@?$_Arithmetic_traits@_J@std@@2HB
CONST	SEGMENT
?_Rank@?$_Arithmetic_traits@_J@std@@2HB DD 06H		; std::_Arithmetic_traits<__int64>::_Rank
CONST	ENDS
;	COMDAT ?_Rank@?$_Arithmetic_traits@K@std@@2HB
CONST	SEGMENT
?_Rank@?$_Arithmetic_traits@K@std@@2HB DD 05H		; std::_Arithmetic_traits<unsigned long>::_Rank
CONST	ENDS
;	COMDAT ?_Rank@?$_Arithmetic_traits@J@std@@2HB
CONST	SEGMENT
?_Rank@?$_Arithmetic_traits@J@std@@2HB DD 05H		; std::_Arithmetic_traits<long>::_Rank
CONST	ENDS
;	COMDAT ?_Rank@?$_Arithmetic_traits@I@std@@2HB
CONST	SEGMENT
?_Rank@?$_Arithmetic_traits@I@std@@2HB DD 04H		; std::_Arithmetic_traits<unsigned int>::_Rank
CONST	ENDS
;	COMDAT ?_Rank@?$_Arithmetic_traits@H@std@@2HB
CONST	SEGMENT
?_Rank@?$_Arithmetic_traits@H@std@@2HB DD 04H		; std::_Arithmetic_traits<int>::_Rank
CONST	ENDS
;	COMDAT ?_Rank@?$_Arithmetic_traits@G@std@@2HB
CONST	SEGMENT
?_Rank@?$_Arithmetic_traits@G@std@@2HB DD 03H		; std::_Arithmetic_traits<unsigned short>::_Rank
CONST	ENDS
;	COMDAT ?_Rank@?$_Arithmetic_traits@F@std@@2HB
CONST	SEGMENT
?_Rank@?$_Arithmetic_traits@F@std@@2HB DD 03H		; std::_Arithmetic_traits<short>::_Rank
CONST	ENDS
;	COMDAT ?_Rank@?$_Arithmetic_traits@E@std@@2HB
CONST	SEGMENT
?_Rank@?$_Arithmetic_traits@E@std@@2HB DD 02H		; std::_Arithmetic_traits<unsigned char>::_Rank
CONST	ENDS
;	COMDAT ?_Rank@?$_Arithmetic_traits@C@std@@2HB
CONST	SEGMENT
?_Rank@?$_Arithmetic_traits@C@std@@2HB DD 02H		; std::_Arithmetic_traits<signed char>::_Rank
CONST	ENDS
;	COMDAT ?_Rank@?$_Arithmetic_traits@D@std@@2HB
CONST	SEGMENT
?_Rank@?$_Arithmetic_traits@D@std@@2HB DD 02H		; std::_Arithmetic_traits<char>::_Rank
CONST	ENDS
;	COMDAT ?_Rank@?$_Arithmetic_traits@_N@std@@2HB
CONST	SEGMENT
?_Rank@?$_Arithmetic_traits@_N@std@@2HB DD 01H		; std::_Arithmetic_traits<bool>::_Rank
CONST	ENDS
;	COMDAT ?value@?$integral_constant@I$0A@@tr1@std@@2IB
CONST	SEGMENT
?value@?$integral_constant@I$0A@@tr1@std@@2IB DD 00H	; std::tr1::integral_constant<unsigned int,0>::value
CONST	ENDS
;	COMDAT ?value@?$integral_constant@_N$00@tr1@std@@2_NB
CONST	SEGMENT
?value@?$integral_constant@_N$00@tr1@std@@2_NB DB 01H	; std::tr1::integral_constant<bool,1>::value
CONST	ENDS
;	COMDAT ?value@?$integral_constant@_N$0A@@tr1@std@@2_NB
CONST	SEGMENT
?value@?$integral_constant@_N$0A@@tr1@std@@2_NB DB 00H	; std::tr1::integral_constant<bool,0>::value
CONST	ENDS
;	COMDAT ?min_exponent10@?$numeric_limits@O@std@@2HB
CONST	SEGMENT
?min_exponent10@?$numeric_limits@O@std@@2HB DD 0fffffecdH ; std::numeric_limits<long double>::min_exponent10
CONST	ENDS
;	COMDAT ?min_exponent@?$numeric_limits@O@std@@2HB
CONST	SEGMENT
?min_exponent@?$numeric_limits@O@std@@2HB DD 0fffffc03H	; std::numeric_limits<long double>::min_exponent
CONST	ENDS
;	COMDAT ?max_exponent10@?$numeric_limits@O@std@@2HB
CONST	SEGMENT
?max_exponent10@?$numeric_limits@O@std@@2HB DD 0134H	; std::numeric_limits<long double>::max_exponent10
CONST	ENDS
;	COMDAT ?max_exponent@?$numeric_limits@O@std@@2HB
CONST	SEGMENT
?max_exponent@?$numeric_limits@O@std@@2HB DD 0400H	; std::numeric_limits<long double>::max_exponent
CONST	ENDS
;	COMDAT ?max_digits10@?$numeric_limits@O@std@@2HB
CONST	SEGMENT
?max_digits10@?$numeric_limits@O@std@@2HB DD 011H	; std::numeric_limits<long double>::max_digits10
CONST	ENDS
;	COMDAT ?digits10@?$numeric_limits@O@std@@2HB
CONST	SEGMENT
?digits10@?$numeric_limits@O@std@@2HB DD 0fH		; std::numeric_limits<long double>::digits10
CONST	ENDS
;	COMDAT ?digits@?$numeric_limits@O@std@@2HB
CONST	SEGMENT
?digits@?$numeric_limits@O@std@@2HB DD 035H		; std::numeric_limits<long double>::digits
CONST	ENDS
;	COMDAT ?min_exponent10@?$numeric_limits@N@std@@2HB
CONST	SEGMENT
?min_exponent10@?$numeric_limits@N@std@@2HB DD 0fffffecdH ; std::numeric_limits<double>::min_exponent10
CONST	ENDS
;	COMDAT ?min_exponent@?$numeric_limits@N@std@@2HB
CONST	SEGMENT
?min_exponent@?$numeric_limits@N@std@@2HB DD 0fffffc03H	; std::numeric_limits<double>::min_exponent
CONST	ENDS
;	COMDAT ?max_exponent10@?$numeric_limits@N@std@@2HB
CONST	SEGMENT
?max_exponent10@?$numeric_limits@N@std@@2HB DD 0134H	; std::numeric_limits<double>::max_exponent10
CONST	ENDS
;	COMDAT ?max_exponent@?$numeric_limits@N@std@@2HB
CONST	SEGMENT
?max_exponent@?$numeric_limits@N@std@@2HB DD 0400H	; std::numeric_limits<double>::max_exponent
CONST	ENDS
;	COMDAT ?max_digits10@?$numeric_limits@N@std@@2HB
CONST	SEGMENT
?max_digits10@?$numeric_limits@N@std@@2HB DD 011H	; std::numeric_limits<double>::max_digits10
CONST	ENDS
;	COMDAT ?digits10@?$numeric_limits@N@std@@2HB
CONST	SEGMENT
?digits10@?$numeric_limits@N@std@@2HB DD 0fH		; std::numeric_limits<double>::digits10
CONST	ENDS
;	COMDAT ?digits@?$numeric_limits@N@std@@2HB
CONST	SEGMENT
?digits@?$numeric_limits@N@std@@2HB DD 035H		; std::numeric_limits<double>::digits
CONST	ENDS
;	COMDAT ?min_exponent10@?$numeric_limits@M@std@@2HB
CONST	SEGMENT
?min_exponent10@?$numeric_limits@M@std@@2HB DD 0ffffffdbH ; std::numeric_limits<float>::min_exponent10
CONST	ENDS
;	COMDAT ?min_exponent@?$numeric_limits@M@std@@2HB
CONST	SEGMENT
?min_exponent@?$numeric_limits@M@std@@2HB DD 0ffffff83H	; std::numeric_limits<float>::min_exponent
CONST	ENDS
;	COMDAT ?max_exponent10@?$numeric_limits@M@std@@2HB
CONST	SEGMENT
?max_exponent10@?$numeric_limits@M@std@@2HB DD 026H	; std::numeric_limits<float>::max_exponent10
CONST	ENDS
;	COMDAT ?max_exponent@?$numeric_limits@M@std@@2HB
CONST	SEGMENT
?max_exponent@?$numeric_limits@M@std@@2HB DD 080H	; std::numeric_limits<float>::max_exponent
CONST	ENDS
;	COMDAT ?max_digits10@?$numeric_limits@M@std@@2HB
CONST	SEGMENT
?max_digits10@?$numeric_limits@M@std@@2HB DD 08H	; std::numeric_limits<float>::max_digits10
CONST	ENDS
;	COMDAT ?digits10@?$numeric_limits@M@std@@2HB
CONST	SEGMENT
?digits10@?$numeric_limits@M@std@@2HB DD 06H		; std::numeric_limits<float>::digits10
CONST	ENDS
;	COMDAT ?digits@?$numeric_limits@M@std@@2HB
CONST	SEGMENT
?digits@?$numeric_limits@M@std@@2HB DD 018H		; std::numeric_limits<float>::digits
CONST	ENDS
;	COMDAT ?max_digits10@?$numeric_limits@_K@std@@2HB
CONST	SEGMENT
?max_digits10@?$numeric_limits@_K@std@@2HB DD 015H	; std::numeric_limits<unsigned __int64>::max_digits10
CONST	ENDS
;	COMDAT ?digits10@?$numeric_limits@_K@std@@2HB
CONST	SEGMENT
?digits10@?$numeric_limits@_K@std@@2HB DD 013H		; std::numeric_limits<unsigned __int64>::digits10
CONST	ENDS
;	COMDAT ?digits@?$numeric_limits@_K@std@@2HB
CONST	SEGMENT
?digits@?$numeric_limits@_K@std@@2HB DD 040H		; std::numeric_limits<unsigned __int64>::digits
CONST	ENDS
;	COMDAT ?is_signed@?$numeric_limits@_K@std@@2_NB
CONST	SEGMENT
?is_signed@?$numeric_limits@_K@std@@2_NB DB 00H		; std::numeric_limits<unsigned __int64>::is_signed
CONST	ENDS
;	COMDAT ?max_digits10@?$numeric_limits@_J@std@@2HB
CONST	SEGMENT
?max_digits10@?$numeric_limits@_J@std@@2HB DD 014H	; std::numeric_limits<__int64>::max_digits10
CONST	ENDS
;	COMDAT ?digits10@?$numeric_limits@_J@std@@2HB
CONST	SEGMENT
?digits10@?$numeric_limits@_J@std@@2HB DD 012H		; std::numeric_limits<__int64>::digits10
CONST	ENDS
;	COMDAT ?digits@?$numeric_limits@_J@std@@2HB
CONST	SEGMENT
?digits@?$numeric_limits@_J@std@@2HB DD 03fH		; std::numeric_limits<__int64>::digits
CONST	ENDS
;	COMDAT ?is_signed@?$numeric_limits@_J@std@@2_NB
CONST	SEGMENT
?is_signed@?$numeric_limits@_J@std@@2_NB DB 01H		; std::numeric_limits<__int64>::is_signed
CONST	ENDS
;	COMDAT ?max_digits10@?$numeric_limits@K@std@@2HB
CONST	SEGMENT
?max_digits10@?$numeric_limits@K@std@@2HB DD 0bH	; std::numeric_limits<unsigned long>::max_digits10
CONST	ENDS
;	COMDAT ?digits10@?$numeric_limits@K@std@@2HB
CONST	SEGMENT
?digits10@?$numeric_limits@K@std@@2HB DD 09H		; std::numeric_limits<unsigned long>::digits10
CONST	ENDS
;	COMDAT ?digits@?$numeric_limits@K@std@@2HB
CONST	SEGMENT
?digits@?$numeric_limits@K@std@@2HB DD 020H		; std::numeric_limits<unsigned long>::digits
CONST	ENDS
;	COMDAT ?is_signed@?$numeric_limits@K@std@@2_NB
CONST	SEGMENT
?is_signed@?$numeric_limits@K@std@@2_NB DB 00H		; std::numeric_limits<unsigned long>::is_signed
CONST	ENDS
;	COMDAT ?max_digits10@?$numeric_limits@J@std@@2HB
CONST	SEGMENT
?max_digits10@?$numeric_limits@J@std@@2HB DD 0bH	; std::numeric_limits<long>::max_digits10
CONST	ENDS
;	COMDAT ?digits10@?$numeric_limits@J@std@@2HB
CONST	SEGMENT
?digits10@?$numeric_limits@J@std@@2HB DD 09H		; std::numeric_limits<long>::digits10
CONST	ENDS
;	COMDAT ?digits@?$numeric_limits@J@std@@2HB
CONST	SEGMENT
?digits@?$numeric_limits@J@std@@2HB DD 01fH		; std::numeric_limits<long>::digits
CONST	ENDS
;	COMDAT ?is_signed@?$numeric_limits@J@std@@2_NB
CONST	SEGMENT
?is_signed@?$numeric_limits@J@std@@2_NB DB 01H		; std::numeric_limits<long>::is_signed
CONST	ENDS
;	COMDAT ?max_digits10@?$numeric_limits@I@std@@2HB
CONST	SEGMENT
?max_digits10@?$numeric_limits@I@std@@2HB DD 0bH	; std::numeric_limits<unsigned int>::max_digits10
CONST	ENDS
;	COMDAT ?digits10@?$numeric_limits@I@std@@2HB
CONST	SEGMENT
?digits10@?$numeric_limits@I@std@@2HB DD 09H		; std::numeric_limits<unsigned int>::digits10
CONST	ENDS
;	COMDAT ?digits@?$numeric_limits@I@std@@2HB
CONST	SEGMENT
?digits@?$numeric_limits@I@std@@2HB DD 020H		; std::numeric_limits<unsigned int>::digits
CONST	ENDS
;	COMDAT ?is_signed@?$numeric_limits@I@std@@2_NB
CONST	SEGMENT
?is_signed@?$numeric_limits@I@std@@2_NB DB 00H		; std::numeric_limits<unsigned int>::is_signed
CONST	ENDS
;	COMDAT ?max_digits10@?$numeric_limits@H@std@@2HB
CONST	SEGMENT
?max_digits10@?$numeric_limits@H@std@@2HB DD 0bH	; std::numeric_limits<int>::max_digits10
CONST	ENDS
;	COMDAT ?digits10@?$numeric_limits@H@std@@2HB
CONST	SEGMENT
?digits10@?$numeric_limits@H@std@@2HB DD 09H		; std::numeric_limits<int>::digits10
CONST	ENDS
;	COMDAT ?digits@?$numeric_limits@H@std@@2HB
CONST	SEGMENT
?digits@?$numeric_limits@H@std@@2HB DD 01fH		; std::numeric_limits<int>::digits
CONST	ENDS
;	COMDAT ?is_signed@?$numeric_limits@H@std@@2_NB
CONST	SEGMENT
?is_signed@?$numeric_limits@H@std@@2_NB DB 01H		; std::numeric_limits<int>::is_signed
CONST	ENDS
;	COMDAT ?max_digits10@?$numeric_limits@G@std@@2HB
CONST	SEGMENT
?max_digits10@?$numeric_limits@G@std@@2HB DD 06H	; std::numeric_limits<unsigned short>::max_digits10
CONST	ENDS
;	COMDAT ?digits10@?$numeric_limits@G@std@@2HB
CONST	SEGMENT
?digits10@?$numeric_limits@G@std@@2HB DD 04H		; std::numeric_limits<unsigned short>::digits10
CONST	ENDS
;	COMDAT ?digits@?$numeric_limits@G@std@@2HB
CONST	SEGMENT
?digits@?$numeric_limits@G@std@@2HB DD 010H		; std::numeric_limits<unsigned short>::digits
CONST	ENDS
;	COMDAT ?is_signed@?$numeric_limits@G@std@@2_NB
CONST	SEGMENT
?is_signed@?$numeric_limits@G@std@@2_NB DB 00H		; std::numeric_limits<unsigned short>::is_signed
CONST	ENDS
;	COMDAT ?max_digits10@?$numeric_limits@F@std@@2HB
CONST	SEGMENT
?max_digits10@?$numeric_limits@F@std@@2HB DD 06H	; std::numeric_limits<short>::max_digits10
CONST	ENDS
;	COMDAT ?digits10@?$numeric_limits@F@std@@2HB
CONST	SEGMENT
?digits10@?$numeric_limits@F@std@@2HB DD 04H		; std::numeric_limits<short>::digits10
CONST	ENDS
;	COMDAT ?digits@?$numeric_limits@F@std@@2HB
CONST	SEGMENT
?digits@?$numeric_limits@F@std@@2HB DD 0fH		; std::numeric_limits<short>::digits
CONST	ENDS
;	COMDAT ?is_signed@?$numeric_limits@F@std@@2_NB
CONST	SEGMENT
?is_signed@?$numeric_limits@F@std@@2_NB DB 01H		; std::numeric_limits<short>::is_signed
CONST	ENDS
;	COMDAT ?max_digits10@?$numeric_limits@E@std@@2HB
CONST	SEGMENT
?max_digits10@?$numeric_limits@E@std@@2HB DD 04H	; std::numeric_limits<unsigned char>::max_digits10
CONST	ENDS
;	COMDAT ?digits10@?$numeric_limits@E@std@@2HB
CONST	SEGMENT
?digits10@?$numeric_limits@E@std@@2HB DD 02H		; std::numeric_limits<unsigned char>::digits10
CONST	ENDS
;	COMDAT ?digits@?$numeric_limits@E@std@@2HB
CONST	SEGMENT
?digits@?$numeric_limits@E@std@@2HB DD 08H		; std::numeric_limits<unsigned char>::digits
CONST	ENDS
;	COMDAT ?is_signed@?$numeric_limits@E@std@@2_NB
CONST	SEGMENT
?is_signed@?$numeric_limits@E@std@@2_NB DB 00H		; std::numeric_limits<unsigned char>::is_signed
CONST	ENDS
;	COMDAT ?max_digits10@?$numeric_limits@C@std@@2HB
CONST	SEGMENT
?max_digits10@?$numeric_limits@C@std@@2HB DD 04H	; std::numeric_limits<signed char>::max_digits10
CONST	ENDS
;	COMDAT ?digits10@?$numeric_limits@C@std@@2HB
CONST	SEGMENT
?digits10@?$numeric_limits@C@std@@2HB DD 02H		; std::numeric_limits<signed char>::digits10
CONST	ENDS
;	COMDAT ?digits@?$numeric_limits@C@std@@2HB
CONST	SEGMENT
?digits@?$numeric_limits@C@std@@2HB DD 07H		; std::numeric_limits<signed char>::digits
CONST	ENDS
;	COMDAT ?is_signed@?$numeric_limits@C@std@@2_NB
CONST	SEGMENT
?is_signed@?$numeric_limits@C@std@@2_NB DB 01H		; std::numeric_limits<signed char>::is_signed
CONST	ENDS
;	COMDAT ?max_digits10@?$numeric_limits@_N@std@@2HB
CONST	SEGMENT
?max_digits10@?$numeric_limits@_N@std@@2HB DD 00H	; std::numeric_limits<bool>::max_digits10
CONST	ENDS
;	COMDAT ?digits10@?$numeric_limits@_N@std@@2HB
CONST	SEGMENT
?digits10@?$numeric_limits@_N@std@@2HB DD 00H		; std::numeric_limits<bool>::digits10
CONST	ENDS
;	COMDAT ?digits@?$numeric_limits@_N@std@@2HB
CONST	SEGMENT
?digits@?$numeric_limits@_N@std@@2HB DD 01H		; std::numeric_limits<bool>::digits
CONST	ENDS
;	COMDAT ?is_signed@?$numeric_limits@_N@std@@2_NB
CONST	SEGMENT
?is_signed@?$numeric_limits@_N@std@@2_NB DB 00H		; std::numeric_limits<bool>::is_signed
CONST	ENDS
;	COMDAT ?is_modulo@?$numeric_limits@_N@std@@2_NB
CONST	SEGMENT
?is_modulo@?$numeric_limits@_N@std@@2_NB DB 00H		; std::numeric_limits<bool>::is_modulo
CONST	ENDS
;	COMDAT ?max_digits10@?$numeric_limits@_W@std@@2HB
CONST	SEGMENT
?max_digits10@?$numeric_limits@_W@std@@2HB DD 06H	; std::numeric_limits<wchar_t>::max_digits10
CONST	ENDS
;	COMDAT ?digits10@?$numeric_limits@_W@std@@2HB
CONST	SEGMENT
?digits10@?$numeric_limits@_W@std@@2HB DD 04H		; std::numeric_limits<wchar_t>::digits10
CONST	ENDS
;	COMDAT ?digits@?$numeric_limits@_W@std@@2HB
CONST	SEGMENT
?digits@?$numeric_limits@_W@std@@2HB DD 010H		; std::numeric_limits<wchar_t>::digits
CONST	ENDS
;	COMDAT ?is_signed@?$numeric_limits@_W@std@@2_NB
CONST	SEGMENT
?is_signed@?$numeric_limits@_W@std@@2_NB DB 00H		; std::numeric_limits<wchar_t>::is_signed
CONST	ENDS
;	COMDAT ?max_digits10@?$numeric_limits@D@std@@2HB
CONST	SEGMENT
?max_digits10@?$numeric_limits@D@std@@2HB DD 04H	; std::numeric_limits<char>::max_digits10
CONST	ENDS
;	COMDAT ?digits10@?$numeric_limits@D@std@@2HB
CONST	SEGMENT
?digits10@?$numeric_limits@D@std@@2HB DD 02H		; std::numeric_limits<char>::digits10
CONST	ENDS
;	COMDAT ?digits@?$numeric_limits@D@std@@2HB
CONST	SEGMENT
?digits@?$numeric_limits@D@std@@2HB DD 07H		; std::numeric_limits<char>::digits
CONST	ENDS
;	COMDAT ?is_signed@?$numeric_limits@D@std@@2_NB
CONST	SEGMENT
?is_signed@?$numeric_limits@D@std@@2_NB DB 01H		; std::numeric_limits<char>::is_signed
CONST	ENDS
;	COMDAT ?radix@_Num_float_base@std@@2HB
CONST	SEGMENT
?radix@_Num_float_base@std@@2HB DD 02H			; std::_Num_float_base::radix
CONST	ENDS
;	COMDAT ?round_style@_Num_float_base@std@@2W4float_round_style@2@B
CONST	SEGMENT
?round_style@_Num_float_base@std@@2W4float_round_style@2@B DD 01H ; std::_Num_float_base::round_style
CONST	ENDS
;	COMDAT ?traps@_Num_float_base@std@@2_NB
CONST	SEGMENT
?traps@_Num_float_base@std@@2_NB DB 01H			; std::_Num_float_base::traps
CONST	ENDS
;	COMDAT ?tinyness_before@_Num_float_base@std@@2_NB
CONST	SEGMENT
?tinyness_before@_Num_float_base@std@@2_NB DB 01H	; std::_Num_float_base::tinyness_before
CONST	ENDS
;	COMDAT ?is_specialized@_Num_float_base@std@@2_NB
CONST	SEGMENT
?is_specialized@_Num_float_base@std@@2_NB DB 01H	; std::_Num_float_base::is_specialized
CONST	ENDS
;	COMDAT ?is_signed@_Num_float_base@std@@2_NB
CONST	SEGMENT
?is_signed@_Num_float_base@std@@2_NB DB 01H		; std::_Num_float_base::is_signed
CONST	ENDS
;	COMDAT ?is_modulo@_Num_float_base@std@@2_NB
CONST	SEGMENT
?is_modulo@_Num_float_base@std@@2_NB DB 00H		; std::_Num_float_base::is_modulo
CONST	ENDS
;	COMDAT ?is_integer@_Num_float_base@std@@2_NB
CONST	SEGMENT
?is_integer@_Num_float_base@std@@2_NB DB 00H		; std::_Num_float_base::is_integer
CONST	ENDS
;	COMDAT ?is_iec559@_Num_float_base@std@@2_NB
CONST	SEGMENT
?is_iec559@_Num_float_base@std@@2_NB DB 01H		; std::_Num_float_base::is_iec559
CONST	ENDS
;	COMDAT ?is_exact@_Num_float_base@std@@2_NB
CONST	SEGMENT
?is_exact@_Num_float_base@std@@2_NB DB 00H		; std::_Num_float_base::is_exact
CONST	ENDS
;	COMDAT ?is_bounded@_Num_float_base@std@@2_NB
CONST	SEGMENT
?is_bounded@_Num_float_base@std@@2_NB DB 01H		; std::_Num_float_base::is_bounded
CONST	ENDS
;	COMDAT ?has_signaling_NaN@_Num_float_base@std@@2_NB
CONST	SEGMENT
?has_signaling_NaN@_Num_float_base@std@@2_NB DB 01H	; std::_Num_float_base::has_signaling_NaN
CONST	ENDS
;	COMDAT ?has_quiet_NaN@_Num_float_base@std@@2_NB
CONST	SEGMENT
?has_quiet_NaN@_Num_float_base@std@@2_NB DB 01H		; std::_Num_float_base::has_quiet_NaN
CONST	ENDS
;	COMDAT ?has_infinity@_Num_float_base@std@@2_NB
CONST	SEGMENT
?has_infinity@_Num_float_base@std@@2_NB DB 01H		; std::_Num_float_base::has_infinity
CONST	ENDS
;	COMDAT ?has_denorm_loss@_Num_float_base@std@@2_NB
CONST	SEGMENT
?has_denorm_loss@_Num_float_base@std@@2_NB DB 01H	; std::_Num_float_base::has_denorm_loss
CONST	ENDS
;	COMDAT ?has_denorm@_Num_float_base@std@@2W4float_denorm_style@2@B
CONST	SEGMENT
?has_denorm@_Num_float_base@std@@2W4float_denorm_style@2@B DD 01H ; std::_Num_float_base::has_denorm
CONST	ENDS
;	COMDAT ?radix@_Num_int_base@std@@2HB
CONST	SEGMENT
?radix@_Num_int_base@std@@2HB DD 02H			; std::_Num_int_base::radix
CONST	ENDS
;	COMDAT ?is_specialized@_Num_int_base@std@@2_NB
CONST	SEGMENT
?is_specialized@_Num_int_base@std@@2_NB DB 01H		; std::_Num_int_base::is_specialized
CONST	ENDS
;	COMDAT ?is_modulo@_Num_int_base@std@@2_NB
CONST	SEGMENT
?is_modulo@_Num_int_base@std@@2_NB DB 01H		; std::_Num_int_base::is_modulo
CONST	ENDS
;	COMDAT ?is_integer@_Num_int_base@std@@2_NB
CONST	SEGMENT
?is_integer@_Num_int_base@std@@2_NB DB 01H		; std::_Num_int_base::is_integer
CONST	ENDS
;	COMDAT ?is_exact@_Num_int_base@std@@2_NB
CONST	SEGMENT
?is_exact@_Num_int_base@std@@2_NB DB 01H		; std::_Num_int_base::is_exact
CONST	ENDS
;	COMDAT ?is_bounded@_Num_int_base@std@@2_NB
CONST	SEGMENT
?is_bounded@_Num_int_base@std@@2_NB DB 01H		; std::_Num_int_base::is_bounded
CONST	ENDS
;	COMDAT ?radix@_Num_base@std@@2HB
CONST	SEGMENT
?radix@_Num_base@std@@2HB DD 00H			; std::_Num_base::radix
CONST	ENDS
;	COMDAT ?min_exponent10@_Num_base@std@@2HB
CONST	SEGMENT
?min_exponent10@_Num_base@std@@2HB DD 00H		; std::_Num_base::min_exponent10
CONST	ENDS
;	COMDAT ?min_exponent@_Num_base@std@@2HB
CONST	SEGMENT
?min_exponent@_Num_base@std@@2HB DD 00H			; std::_Num_base::min_exponent
CONST	ENDS
;	COMDAT ?max_exponent10@_Num_base@std@@2HB
CONST	SEGMENT
?max_exponent10@_Num_base@std@@2HB DD 00H		; std::_Num_base::max_exponent10
CONST	ENDS
;	COMDAT ?max_exponent@_Num_base@std@@2HB
CONST	SEGMENT
?max_exponent@_Num_base@std@@2HB DD 00H			; std::_Num_base::max_exponent
CONST	ENDS
;	COMDAT ?max_digits10@_Num_base@std@@2HB
CONST	SEGMENT
?max_digits10@_Num_base@std@@2HB DD 00H			; std::_Num_base::max_digits10
CONST	ENDS
;	COMDAT ?digits10@_Num_base@std@@2HB
CONST	SEGMENT
?digits10@_Num_base@std@@2HB DD 00H			; std::_Num_base::digits10
CONST	ENDS
;	COMDAT ?digits@_Num_base@std@@2HB
CONST	SEGMENT
?digits@_Num_base@std@@2HB DD 00H			; std::_Num_base::digits
CONST	ENDS
;	COMDAT ?round_style@_Num_base@std@@2W4float_round_style@2@B
CONST	SEGMENT
?round_style@_Num_base@std@@2W4float_round_style@2@B DD 00H ; std::_Num_base::round_style
CONST	ENDS
;	COMDAT ?traps@_Num_base@std@@2_NB
CONST	SEGMENT
?traps@_Num_base@std@@2_NB DB 00H			; std::_Num_base::traps
CONST	ENDS
;	COMDAT ?tinyness_before@_Num_base@std@@2_NB
CONST	SEGMENT
?tinyness_before@_Num_base@std@@2_NB DB 00H		; std::_Num_base::tinyness_before
CONST	ENDS
;	COMDAT ?is_specialized@_Num_base@std@@2_NB
CONST	SEGMENT
?is_specialized@_Num_base@std@@2_NB DB 00H		; std::_Num_base::is_specialized
CONST	ENDS
;	COMDAT ?is_signed@_Num_base@std@@2_NB
CONST	SEGMENT
?is_signed@_Num_base@std@@2_NB DB 00H			; std::_Num_base::is_signed
CONST	ENDS
;	COMDAT ?is_modulo@_Num_base@std@@2_NB
CONST	SEGMENT
?is_modulo@_Num_base@std@@2_NB DB 00H			; std::_Num_base::is_modulo
CONST	ENDS
;	COMDAT ?is_integer@_Num_base@std@@2_NB
CONST	SEGMENT
?is_integer@_Num_base@std@@2_NB DB 00H			; std::_Num_base::is_integer
CONST	ENDS
;	COMDAT ?is_iec559@_Num_base@std@@2_NB
CONST	SEGMENT
?is_iec559@_Num_base@std@@2_NB DB 00H			; std::_Num_base::is_iec559
CONST	ENDS
;	COMDAT ?is_exact@_Num_base@std@@2_NB
CONST	SEGMENT
?is_exact@_Num_base@std@@2_NB DB 00H			; std::_Num_base::is_exact
CONST	ENDS
;	COMDAT ?is_bounded@_Num_base@std@@2_NB
CONST	SEGMENT
?is_bounded@_Num_base@std@@2_NB DB 00H			; std::_Num_base::is_bounded
CONST	ENDS
;	COMDAT ?has_signaling_NaN@_Num_base@std@@2_NB
CONST	SEGMENT
?has_signaling_NaN@_Num_base@std@@2_NB DB 00H		; std::_Num_base::has_signaling_NaN
CONST	ENDS
;	COMDAT ?has_quiet_NaN@_Num_base@std@@2_NB
CONST	SEGMENT
?has_quiet_NaN@_Num_base@std@@2_NB DB 00H		; std::_Num_base::has_quiet_NaN
CONST	ENDS
;	COMDAT ?has_infinity@_Num_base@std@@2_NB
CONST	SEGMENT
?has_infinity@_Num_base@std@@2_NB DB 00H		; std::_Num_base::has_infinity
CONST	ENDS
;	COMDAT ?has_denorm_loss@_Num_base@std@@2_NB
CONST	SEGMENT
?has_denorm_loss@_Num_base@std@@2_NB DB 00H		; std::_Num_base::has_denorm_loss
CONST	ENDS
;	COMDAT ?has_denorm@_Num_base@std@@2W4float_denorm_style@2@B
CONST	SEGMENT
?has_denorm@_Num_base@std@@2W4float_denorm_style@2@B DD 00H ; std::_Num_base::has_denorm
CONST	ENDS
PUBLIC	??_C@_0BII@MJCKCDLH@?6?$CL?9?9?5control?5commands?5?9?9?9?9?9?9?9?9?9?9@ ; `string'
PUBLIC	??_C@_0DJA@IIPFAPDJ@?6?$CL?9?9?5control?5commands?5?9?9?9?9?9?9?9?9?9?9@ ; `string'
PUBLIC	?cmdHelp@@YAXXZ					; cmdHelp
EXTRN	_fputs:PROC
EXTRN	___iob_func:PROC
EXTRN	?settings@@3VCSettings@@A:BYTE			; settings
;	COMDAT ??_C@_0BII@MJCKCDLH@?6?$CL?9?9?5control?5commands?5?9?9?9?9?9?9?9?9?9?9@
; File c:\users\erich\documents\college\dtb_project\psi46test-master\psi46test-master\cmd.cpp
CONST	SEGMENT
??_C@_0BII@MJCKCDLH@?6?$CL?9?9?5control?5commands?5?9?9?9?9?9?9?9?9?9?9@ DB 0aH
	DB	'+-- control commands ----------------------------------------'
	DB	'--+', 0aH, '| h                  display this text           '
	DB	'              |', 0aH, '| exit               exit commander  '
	DB	'                          |', 0aH, '+-- chip test -----------'
	DB	'--------------------------------------+', 0aH, '| test <chip '
	DB	'id>     run chip test                             |', 0aH, '+'
	DB	'-------------------------------------------------------------'
	DB	'-+', 0aH, 00H				; `string'
CONST	ENDS
;	COMDAT ??_C@_0DJA@IIPFAPDJ@?6?$CL?9?9?5control?5commands?5?9?9?9?9?9?9?9?9?9?9@
CONST	SEGMENT
??_C@_0DJA@IIPFAPDJ@?6?$CL?9?9?5control?5commands?5?9?9?9?9?9?9?9?9?9?9@ DB 0aH
	DB	'+-- control commands ----------------------------------------'
	DB	'--+', 0aH, '| h                  display this text           '
	DB	'              |', 0aH, '| exit               exit commander  '
	DB	'                          |', 0aH, '+-- wafer test ----------'
	DB	'--------------------------------------+', 0aH, '| go         '
	DB	'        start wafer test (press <cr> to stop)     |', 0aH, '|'
	DB	' test               run chip test                            '
	DB	' |', 0aH, '| pr <command>       send command to prober       '
	DB	'             |', 0aH, '| sep                prober z-axis sep'
	DB	'aration                  |', 0aH, '| contact            probe'
	DB	'r z-axis contact                     |', 0aH, '| first       '
	DB	'       go to first die and clear wafer map       |', 0aH, '| '
	DB	'next               go to next die                            '
	DB	'|', 0aH, '| goto <x> <y>       go to specifed die            '
	DB	'            |', 0aH, '| chippos <ABCD>     move to chip A, B,'
	DB	' C or D                 |', 0aH, '+--------------------------'
	DB	'------------------------------------+', 0aH, 00H ; `string'
; Function compile flags: /Ogtp
CONST	ENDS
;	COMDAT ?cmdHelp@@YAXXZ
_TEXT	SEGMENT
?cmdHelp@@YAXXZ PROC					; cmdHelp, COMDAT

; 25   : 	if (settings.proberPort >= 0)

  00000	83 3d 34 00 00
	00 00		 cmp	 DWORD PTR ?settings@@3VCSettings@@A+52, 0
  00007	7c 17		 jl	 SHORT $LN2@cmdHelp

; 26   : 	{
; 27   : 	 fputs("\n"
; 28   : 	 "+-- control commands ------------------------------------------+\n"
; 29   : 	 "| h                  display this text                         |\n"
; 30   : 	 "| exit               exit commander                            |\n"
; 31   : 	 "+-- wafer test ------------------------------------------------+\n"
; 32   : 	 "| go                 start wafer test (press <cr> to stop)     |\n"
; 33   : 	 "| test               run chip test                             |\n"
; 34   : 	 "| pr <command>       send command to prober                    |\n"
; 35   : 	 "| sep                prober z-axis separation                  |\n"
; 36   : 	 "| contact            prober z-axis contact                     |\n"
; 37   : 	 "| first              go to first die and clear wafer map       |\n"
; 38   : 	 "| next               go to next die                            |\n"
; 39   : 	 "| goto <x> <y>       go to specifed die                        |\n"
; 40   : 	 "| chippos <ABCD>     move to chip A, B, C or D                 |\n"
; 41   : 	 "+--------------------------------------------------------------+\n",
; 42   : 	 stdout);

  00009	e8 00 00 00 00	 call	 ___iob_func
  0000e	83 c0 20	 add	 eax, 32			; 00000020H
  00011	50		 push	 eax
  00012	68 00 00 00 00	 push	 OFFSET ??_C@_0DJA@IIPFAPDJ@?6?$CL?9?9?5control?5commands?5?9?9?9?9?9?9?9?9?9?9@

; 43   : 	}
; 44   : 	else
; 45   : 	{
; 46   : 	 fputs("\n"
; 47   : 	 "+-- control commands ------------------------------------------+\n"
; 48   : 	 "| h                  display this text                         |\n"
; 49   : 	 "| exit               exit commander                            |\n"
; 50   : 	 "+-- chip test -------------------------------------------------+\n"
; 51   : 	 "| test <chip id>     run chip test                             |\n"
; 52   : 	 "+--------------------------------------------------------------+\n",
; 53   : 	 stdout);

  00017	e8 00 00 00 00	 call	 _fputs
  0001c	83 c4 08	 add	 esp, 8

; 54   : 	}
; 55   : }

  0001f	c3		 ret	 0
$LN2@cmdHelp:

; 43   : 	}
; 44   : 	else
; 45   : 	{
; 46   : 	 fputs("\n"
; 47   : 	 "+-- control commands ------------------------------------------+\n"
; 48   : 	 "| h                  display this text                         |\n"
; 49   : 	 "| exit               exit commander                            |\n"
; 50   : 	 "+-- chip test -------------------------------------------------+\n"
; 51   : 	 "| test <chip id>     run chip test                             |\n"
; 52   : 	 "+--------------------------------------------------------------+\n",
; 53   : 	 stdout);

  00020	e8 00 00 00 00	 call	 ___iob_func
  00025	83 c0 20	 add	 eax, 32			; 00000020H
  00028	50		 push	 eax
  00029	68 00 00 00 00	 push	 OFFSET ??_C@_0BII@MJCKCDLH@?6?$CL?9?9?5control?5commands?5?9?9?9?9?9?9?9?9?9?9@
  0002e	e8 00 00 00 00	 call	 _fputs
  00033	83 c4 08	 add	 esp, 8

; 54   : 	}
; 55   : }

  00036	c3		 ret	 0
?cmdHelp@@YAXXZ ENDP					; cmdHelp
_TEXT	ENDS
PUBLIC	?cmd_h@@YA_NAAVCCmdLine@@@Z			; cmd_h
; Function compile flags: /Ogtp
;	COMDAT ?cmd_h@@YA_NAAVCCmdLine@@@Z
_TEXT	SEGMENT
_par$ = 8						; size = 4
?cmd_h@@YA_NAAVCCmdLine@@@Z PROC			; cmd_h, COMDAT

; 60   : 	cmdHelp();

  00000	e8 00 00 00 00	 call	 ?cmdHelp@@YAXXZ		; cmdHelp

; 61   : 	return true;

  00005	b0 01		 mov	 al, 1

; 62   : }

  00007	c3		 ret	 0
?cmd_h@@YA_NAAVCCmdLine@@@Z ENDP			; cmd_h
_TEXT	ENDS
PUBLIC	?_Myptr@?$basic_string@DU?$char_traits@D@std@@V?$allocator@D@2@@std@@QBEPBDXZ ; std::basic_string<char,std::char_traits<char>,std::allocator<char> >::_Myptr
; Function compile flags: /Ogtp
; File c:\program files (x86)\microsoft visual studio 10.0\vc\include\xstring
;	COMDAT ?_Myptr@?$basic_string@DU?$char_traits@D@std@@V?$allocator@D@2@@std@@QBEPBDXZ
_TEXT	SEGMENT
?_Myptr@?$basic_string@DU?$char_traits@D@std@@V?$allocator@D@2@@std@@QBEPBDXZ PROC ; std::basic_string<char,std::char_traits<char>,std::allocator<char> >::_Myptr, COMDAT
; _this$ = ecx

; 2009 : 		{	// determine current pointer to buffer for nonmutable string

  00000	8b c1		 mov	 eax, ecx

; 2010 : 		return (this->_BUF_SIZE <= this->_Myres ? this->_Bx._Ptr
; 2011 : 			: this->_Bx._Buf);

  00002	83 78 14 10	 cmp	 DWORD PTR [eax+20], 16	; 00000010H
  00006	72 02		 jb	 SHORT $LN4@Myptr
  00008	8b 00		 mov	 eax, DWORD PTR [eax]
$LN4@Myptr:

; 2012 : 		}

  0000a	c3		 ret	 0
?_Myptr@?$basic_string@DU?$char_traits@D@std@@V?$allocator@D@2@@std@@QBEPBDXZ ENDP ; std::basic_string<char,std::char_traits<char>,std::allocator<char> >::_Myptr
_TEXT	ENDS
PUBLIC	?c_str@?$basic_string@DU?$char_traits@D@std@@V?$allocator@D@2@@std@@QBEPBDXZ ; std::basic_string<char,std::char_traits<char>,std::allocator<char> >::c_str
; Function compile flags: /Ogtp
;	COMDAT ?c_str@?$basic_string@DU?$char_traits@D@std@@V?$allocator@D@2@@std@@QBEPBDXZ
_TEXT	SEGMENT
?c_str@?$basic_string@DU?$char_traits@D@std@@V?$allocator@D@2@@std@@QBEPBDXZ PROC ; std::basic_string<char,std::char_traits<char>,std::allocator<char> >::c_str, COMDAT
; _this$ = ecx

; 1496 : 		{	// return pointer to null-terminated nonmutable array

  00000	8b c1		 mov	 eax, ecx

; 1497 : 		return (_Myptr());

  00002	83 78 14 10	 cmp	 DWORD PTR [eax+20], 16	; 00000010H
  00006	72 02		 jb	 SHORT $LN6@c_str
  00008	8b 00		 mov	 eax, DWORD PTR [eax]
$LN6@c_str:

; 1498 : 		}

  0000a	c3		 ret	 0
?c_str@?$basic_string@DU?$char_traits@D@std@@V?$allocator@D@2@@std@@QBEPBDXZ ENDP ; std::basic_string<char,std::char_traits<char>,std::allocator<char> >::c_str
_TEXT	ENDS
PUBLIC	??_C@_01BDACAMKP@h?$AA@				; `string'
PUBLIC	??_C@_0M@LKPDCNLD@simple?5help?$AA@		; `string'
PUBLIC	??_C@_08DBOOECMD@deser160?$AA@			; `string'
PUBLIC	??_C@_0P@MFIKDOFK@align?5deser160?$AA@		; `string'
PUBLIC	??_C@_05CGLMJBE@shmoo?$AA@			; `string'
PUBLIC	??_C@_0BP@BNPMMADJ@shmoo?5vx?5xrange?5vy?5ymin?5yrange?$AA@ ; `string'
PUBLIC	??_C@_05FEFHBGJG@ethrx?$AA@			; `string'
PUBLIC	??_C@_0CB@OFOKPEOK@shows?5number?5of?5received?5packets@ ; `string'
PUBLIC	??_C@_07PAECCOB@ethsend?$AA@			; `string'
PUBLIC	??_C@_08OOGHEFMC@?$DMstring?$DO?$AA@		; `string'
PUBLIC	??_C@_0CD@GIPCAEGN@send?5?$DMstring?$DO?5in?5a?5Ethernet?5pack@ ; `string'
PUBLIC	??_C@_07JFKEGMMK@analyze?$AA@			; `string'
PUBLIC	??_C@_0BE@OCIALKL@test?5analyzer?5chain?$AA@	; `string'
PUBLIC	??_C@_08EFAIPCME@daqreadm?$AA@			; `string'
PUBLIC	??_C@_0DI@CKEODELC@read?0?5decode?5and?5list?5continous?5@ ; `string'
PUBLIC	??_C@_08EIEEGMCG@daqtest2?$AA@			; `string'
PUBLIC	??_C@_0CJ@OPPMLNKG@test?5DAQ?5read?5function?5in?5contin@ ; `string'
PUBLIC	??_C@_07DOINDMCH@daqtest?$AA@			; `string'
PUBLIC	??_C@_0BH@JLJMDOGN@test?5DAQ?5read?5function?$AA@ ; `string'
PUBLIC	??_C@_0L@NOIPIAJP@vectortest?$AA@		; `string'
PUBLIC	??_C@_08HFIJHNHI@?$DMlength?$DO?$AA@		; `string'
PUBLIC	??_C@_0BG@PBGDOLGP@send?1receive?5a?5vector?$AA@ ; `string'
PUBLIC	??_C@_0M@FEBKOAJM@showrocdata?$AA@		; `string'
PUBLIC	??_C@_08IBOHAMJP@decoding?$AA@			; `string'
PUBLIC	??_C@_07PILJADFP@showsda?$AA@			; `string'
PUBLIC	??_C@_07NFGJLGCC@showctr?$AA@			; `string'
PUBLIC	??_C@_07FMFMONPC@showclk?$AA@			; `string'
PUBLIC	??_C@_03MDPCKCMI@ext?$AA@			; `string'
PUBLIC	??_C@_04MABHPDAO@goto?$AA@			; `string'
PUBLIC	??_C@_0BE@JLBNNIIN@go?5to?5specified?5die?$AA@	; `string'
PUBLIC	??_C@_04CJGEDOF@next?$AA@			; `string'
PUBLIC	??_C@_0P@FKIOBIAB@go?5to?5next?5die?$AA@	; `string'
PUBLIC	??_C@_05NIGAKFML@first?$AA@			; `string'
PUBLIC	??_C@_0CE@JKCOHBHD@go?5to?5first?5die?5and?5clear?5wafer?5@ ; `string'
PUBLIC	??_C@_02KPEDIMCA@go?$AA@			; `string'
PUBLIC	??_C@_09LKIINAAH@init?$HMcont?$AA@		; `string'
PUBLIC	??_C@_0CG@LHCMJAFK@start?5wafer?5test?5?$CIpress?5?$DMcr?$DO?5to?5@ ; `string'
PUBLIC	??_C@_07IGGPDNKF@chippos?$AA@			; `string'
PUBLIC	??_C@_06FEJAPEPF@?$DMABCD?$DO?$AA@		; `string'
PUBLIC	??_C@_0BK@GJLFMLID@move?5to?5chip?5A?0?5B?0?5C?5or?5D?$AA@ ; `string'
PUBLIC	??_C@_09JEKCBIKL@?$DMchip?5id?$DO?$AA@		; `string'
PUBLIC	??_C@_0O@CBCENHAB@run?5chip?5test?$AA@		; `string'
PUBLIC	??_C@_07FLDMKAK@contact?$AA@			; `string'
PUBLIC	??_C@_0BG@FJEKPLJM@prober?5z?9axis?5contact?$AA@ ; `string'
PUBLIC	??_C@_03MGBCFPKM@sep?$AA@			; `string'
PUBLIC	??_C@_0BJ@JJOAHGHO@prober?5z?9axis?5separation?$AA@ ; `string'
PUBLIC	??_C@_02EJEGFFMJ@pr?$AA@			; `string'
PUBLIC	??_C@_09CNCEGNKE@?$DMcommand?$DO?$AA@		; `string'
PUBLIC	??_C@_0BH@ILPOGPCN@send?5command?5to?5prober?$AA@ ; `string'
PUBLIC	??_C@_07NBCIKJCI@roctype?$AA@			; `string'
PUBLIC	??_C@_07HLGBALKB@ana?$HMdig?$AA@		; `string'
PUBLIC	??_C@_0BJ@PKLIFJML@choose?5ROC?5type?5for?5test?$AA@ ; `string'
PUBLIC	??_C@_04CEJDCDCH@test?$AA@			; `string'
PUBLIC	??_C@_07GGFEMFBK@gettemp?$AA@			; `string'
PUBLIC	??_C@_0BE@FHOKBDLP@Read?5RTD?5on?5the?5HDI?$AA@	; `string'
PUBLIC	??_C@_04EGDIKCJN@lldr?$AA@			; `string'
PUBLIC	??_C@_09HHDKDAJO@?$DMaddress?$DO?$AA@		; `string'
PUBLIC	??_C@_08JLNOPKPP@lld?5read?$AA@			; `string'
PUBLIC	??_C@_04DLEPFGNI@lldw?$AA@			; `string'
PUBLIC	??_C@_09GOIMPPCL@lld?5write?$AA@		; `string'
PUBLIC	??_C@_04LFLEPBN@mask?$AA@			; `string'
PUBLIC	??_C@_0BI@ONJKCAI@mask?5all?5pixel?5and?5cols?$AA@ ; `string'
PUBLIC	??_C@_04CEIJAJPO@cald?$AA@			; `string'
PUBLIC	??_C@_0BA@HHJEFHFL@clear?5calibrate?$AA@	; `string'
PUBLIC	??_C@_04CBAKINGI@cals?$AA@			; `string'
PUBLIC	??_C@_0BH@DKBICDFN@sensor?5calibrate?5pixel?$AA@ ; `string'
PUBLIC	??_C@_03HHHFPNLC@cal?$AA@			; `string'
PUBLIC	??_C@_0BA@MHGCBDPJ@calibrate?5pixel?$AA@	; `string'
PUBLIC	??_C@_04NNFCMHOP@pixd?$AA@			; `string'
PUBLIC	??_C@_0BA@GCPGDBDH@?$DMrange?$DO?5?$DMrange?$DO?$AA@ ; `string'
PUBLIC	??_C@_0L@IOAODDOD@kill?5pixel?$AA@		; `string'
PUBLIC	??_C@_04MEEJPGKO@pixe?$AA@			; `string'
PUBLIC	??_C@_0BI@LCFMAPIA@?$DMrange?$DO?5?$DMrange?$DO?5?$DMvalue?$DO?$AA@ ; `string'
PUBLIC	??_C@_0L@OKHDDMCA@trim?5pixel?$AA@		; `string'
PUBLIC	??_C@_04MEFGHOMN@cold?$AA@			; `string'
PUBLIC	??_C@_0BA@EGACNBJH@disable?5columns?$AA@	; `string'
PUBLIC	??_C@_04NNENEPIM@cole?$AA@			; `string'
PUBLIC	??_C@_07HPMKGPHJ@?$DMrange?$DO?$AA@		; `string'
PUBLIC	??_C@_0O@LFJHMDAA@enable?5column?$AA@		; `string'
PUBLIC	??_C@_03GNJIJMCJ@ctl?$AA@			; `string'
PUBLIC	??_C@_0BF@FFGPJKMM@set?5control?5register?$AA@	; `string'
PUBLIC	??_C@_03CNNAJPOM@wbc?$AA@			; `string'
PUBLIC	??_C@_07MOGOMHAH@set?5WBC?$AA@			; `string'
PUBLIC	??_C@_04OGIBMANM@vcal?$AA@			; `string'
PUBLIC	??_C@_08EJMFKMKK@set?5Vcal?$AA@			; `string'
PUBLIC	??_C@_04PANPKLKK@vthr?$AA@			; `string'
PUBLIC	??_C@_0N@ICCFHNBJ@set?5VthrComp?$AA@		; `string'
PUBLIC	??_C@_05MJHHHLNN@vtrim?$AA@			; `string'
PUBLIC	??_C@_09HALOOLLI@set?5Vtrim?$AA@		; `string'
PUBLIC	??_C@_04PCHKDBCH@vana?$AA@			; `string'
PUBLIC	??_C@_08FNDOFNFB@set?5Vana?$AA@			; `string'
PUBLIC	??_C@_03GNDKNJME@dac?$AA@			; `string'
PUBLIC	??_C@_0BC@GPADDOKO@?$DMaddress?$DO?5?$DMvalue?$DO?$AA@ ; `string'
PUBLIC	??_C@_07IOIEIBCP@set?5DAC?$AA@			; `string'
PUBLIC	??_C@_06LGNCCACI@select?$AA@			; `string'
PUBLIC	??_C@_0N@PGOIAMKG@?$DMaddr?5range?$DO?$AA@	; `string'
PUBLIC	??_C@_0BA@IEKAGLCL@set?5i2c?5address?$AA@	; `string'
PUBLIC	??_C@_03BCNGPMIN@roc?$AA@			; `string'
PUBLIC	??_C@_06CCOPHDFP@tbmset?$AA@			; `string'
PUBLIC	??_C@_0O@NJJCJFGN@?$DMreg?$DO?5?$DMvalue?$DO?$AA@ ; `string'
PUBLIC	??_C@_0BB@GKAGPJJN@set?5TBM?5register?$AA@	; `string'
PUBLIC	??_C@_06ODDMEDLE@modsel?$AA@			; `string'
PUBLIC	??_C@_05MCLAPBJL@?$DMhub?$DO?$AA@		; `string'
PUBLIC	??_C@_0BL@MJBJGHEB@set?5hub?5address?5for?5module?$AA@ ; `string'
PUBLIC	??_C@_06KAPEOLAG@tbmsel?$AA@			; `string'
PUBLIC	??_C@_0N@KKHMDFCI@?$DMhub?$DO?5?$DMport?$DO?$AA@ ; `string'
PUBLIC	??_C@_0BJ@NAIIJFGE@set?5hub?5and?5port?5address?$AA@ ; `string'
PUBLIC	??_C@_06KJHKHDNK@tbmdis?$AA@			; `string'
PUBLIC	??_C@_0M@OHAHKNIP@disable?5TBM?$AA@		; `string'
PUBLIC	??_C@_07LLPNMCC@dseloff?$AA@			; `string'
PUBLIC	??_C@_0N@BMFBIFCG@deselect?5all?$AA@		; `string'
PUBLIC	??_C@_07PJNIKKPD@dselsim?$AA@			; `string'
PUBLIC	??_C@_0N@PLOHGFBB@?$DMstartvalue?$DO?$AA@	; `string'
PUBLIC	??_C@_0CE@DIIPMIIG@select?5data?5generator?5for?5channe@ ; `string'
PUBLIC	??_C@_08EKDOHKIM@dselroca?$AA@			; `string'
PUBLIC	??_C@_0BJ@JNNDCAIH@select?5adc?5for?5channel?50?$AA@ ; `string'
PUBLIC	??_C@_07NLGKJMKK@dselroc?$AA@			; `string'
PUBLIC	??_C@_07LFFIHBO@?$DMvalue?$DO?$AA@		; `string'
PUBLIC	??_C@_0CC@JLNMCDEL@select?5deser160?5for?5DAQ?5channel?5@ ; `string'
PUBLIC	??_C@_07DKDFIEBJ@dmodres?$AA@			; `string'
PUBLIC	??_C@_0BD@OPCLDKPO@reset?5all?5deser400?$AA@	; `string'
PUBLIC	??_C@_07JMFBENKE@dselmod?$AA@			; `string'
PUBLIC	??_C@_0CC@CGGINBEN@select?5deser400?5for?5DAQ?5channel?5@ ; `string'
PUBLIC	??_C@_06LKPALFPM@dreada?$AA@			; `string'
PUBLIC	??_C@_06BGEFPKPA@dreadm?$AA@			; `string'
PUBLIC	??_C@_0CI@NKIAILEF@Read?5Daq?5buffer?5and?5show?5as?5modu@ ; `string'
PUBLIC	??_C@_06NLBPPEGO@dreadr?$AA@			; `string'
PUBLIC	??_C@_0CF@NCOLGGEJ@Read?5Daq?5buffer?5and?5show?5as?5ROC?5@ ; `string'
PUBLIC	??_C@_05BKDGKIDK@dread?$AA@			; `string'
PUBLIC	??_C@_0CF@OAMKBFMP@Read?5Daq?5buffer?5and?5show?5as?5raw?5@ ; `string'
PUBLIC	??_C@_05GEOIEDOC@dsize?$AA@			; `string'
PUBLIC	??_C@_0BL@DOOKMEFD@Show?5DAQ?5buffer?5fill?5state?$AA@ ; `string'
PUBLIC	??_C@_05OLMDELCP@dstop?$AA@			; `string'
PUBLIC	??_C@_0M@ELBOMCOM@Disable?5DAQ?$AA@		; `string'
PUBLIC	??_C@_06DDCOBLN@dstart?$AA@			; `string'
PUBLIC	??_C@_0L@DGPPCOKI@Enable?5DAQ?$AA@		; `string'
PUBLIC	??_C@_06OCLAABHB@dclose?$AA@			; `string'
PUBLIC	??_C@_0M@MCCMCADE@?$FL?$DMchannel?$DO?$FN?$AA@	; `string'
PUBLIC	??_C@_09FIJCNEFO@Close?5DAQ?$AA@		; `string'
PUBLIC	??_C@_05BIGHBMPC@dopen?$AA@			; `string'
PUBLIC	??_C@_0BF@DOBLMENI@?$DMbuffer?5size?$DO?5?$FL?$DMch?$DO?$FN?$AA@ ; `string'
PUBLIC	??_C@_0BN@IDMOMANB@Open?5DAQ?5and?5allocate?5memory?$AA@ ; `string'
PUBLIC	??_C@_03BFMOKJBH@daq?$AA@			; `string'
PUBLIC	??_C@_06MIDJEHLK@pgloop?$AA@			; `string'
PUBLIC	??_C@_08BLLLAMGH@?$DMperiod?$DO?$AA@		; `string'
PUBLIC	??_C@_0CE@LONLJPPI@start?5patterngenerator?5in?5loop?5m@ ; `string'
PUBLIC	??_C@_06DLNEOMJP@pgtrig?$AA@			; `string'
PUBLIC	??_C@_0CA@PFODKJBB@enable?5external?5pattern?5trigger?$AA@ ; `string'
PUBLIC	??_C@_08BILELODC@pgsingle?$AA@			; `string'
PUBLIC	??_C@_0BE@ODHEEMOB@send?5single?5pattern?$AA@	; `string'
PUBLIC	??_C@_06KNJBJHHH@pgstop?$AA@			; `string'
PUBLIC	??_C@_0BI@BLBLGOLH@stops?5pattern?5generator?$AA@ ; `string'
PUBLIC	??_C@_05BCMIECIL@pgset?$AA@			; `string'
PUBLIC	??_C@_0BG@MGCIEMOE@?$DMaddr?$DO?5?$DMbits?$DO?5?$DMdelay?$DO?$AA@ ; `string'
PUBLIC	??_C@_0BM@OPHPCPIF@set?5pattern?5generator?5entry?$AA@ ; `string'
PUBLIC	??_C@_08OMKEBPPH@probeadc?$AA@			; `string'
PUBLIC	??_C@_0BM@CLGOGNIP@assign?5analog?5signal?5to?5ADC?$AA@ ; `string'
PUBLIC	??_C@_02KENLNDIL@a2?$AA@			; `string'
PUBLIC	??_C@_0CC@OMBHDGKK@assign?5analog?5signal?5to?5A2?5outou@ ; `string'
PUBLIC	??_C@_02IPPGIAEI@a1?$AA@			; `string'
PUBLIC	??_C@_0CC@NNOAENKG@assign?5analog?5signal?5to?5A1?5outpu@ ; `string'
PUBLIC	??_C@_02KCBABBGA@d2?$AA@			; `string'
PUBLIC	??_C@_0BL@CADBPCML@assign?5signal?5to?5D2?5outout?$AA@ ; `string'
PUBLIC	??_C@_02IJDNECKD@d1?$AA@			; `string'
PUBLIC	??_C@_08FNGDAIED@?$DMsignal?$DO?$AA@		; `string'
PUBLIC	??_C@_0BL@BBMGIJMH@assign?5signal?5to?5D1?5output?$AA@ ; `string'
PUBLIC	??_C@_07MFPHLBKC@rocaddr?$AA@			; `string'
PUBLIC	??_C@_0BA@JLPAOFAF@set?5ROC?5address?$AA@	; `string'
PUBLIC	??_C@_06DJIHEMFI@status?$AA@			; `string'
PUBLIC	??_C@_0BH@MFDFAINF@shows?5testboard?5status?$AA@ ; `string'
PUBLIC	??_C@_06ODJHHJJD@resoff?$AA@			; `string'
PUBLIC	??_C@_0BB@IJMEGLI@deactivate?5reset?$AA@	; `string'
PUBLIC	??_C@_05JIHKMPON@reson?$AA@			; `string'
PUBLIC	??_C@_0P@FFFFJELC@activate?5reset?$AA@		; `string'
PUBLIC	??_C@_05MALAFKOC@hvoff?$AA@			; `string'
PUBLIC	??_C@_0O@NAJKIABN@switch?5HV?5off?$AA@		; `string'
PUBLIC	??_C@_04GGDOABBK@hvon?$AA@			; `string'
PUBLIC	??_C@_0N@JGJOKEIA@switch?5HV?5on?$AA@		; `string'
PUBLIC	??_C@_05KINEPAEE@getid?$AA@			; `string'
PUBLIC	??_C@_0N@CCKBACKC@get?5ID?5in?5mA?$AA@		; `string'
PUBLIC	??_C@_05NFKDAEAB@getia?$AA@			; `string'
PUBLIC	??_C@_0N@GKEBAMMG@get?5IA?5in?5mA?$AA@		; `string'
PUBLIC	??_C@_05LPKOBEAJ@getvd?$AA@			; `string'
PUBLIC	??_C@_0M@DLOGKGAP@get?5VD?5in?5V?$AA@		; `string'
PUBLIC	??_C@_05MCNJOAEM@getva?$AA@			; `string'
PUBLIC	??_C@_0M@GJNOIJKI@get?5VA?5in?5V?$AA@		; `string'
PUBLIC	??_C@_02EGCJHIOB@id?$AA@			; `string'
PUBLIC	??_C@_0N@FGBPMOOO@set?5ID?5in?5mA?$AA@		; `string'
PUBLIC	??_C@_02DLFOIMKE@ia?$AA@			; `string'
PUBLIC	??_C@_04KENNIODB@?$DMmA?$DO?$AA@		; `string'
PUBLIC	??_C@_0N@BOPPMAIK@set?5IA?5in?5mA?$AA@		; `string'
PUBLIC	??_C@_02FBFDJMKM@vd?$AA@			; `string'
PUBLIC	??_C@_0N@CAOFMHNI@set?5VD?5in?5mV?$AA@		; `string'
PUBLIC	??_C@_02CMCEGIOJ@va?$AA@			; `string'
PUBLIC	??_C@_04LNLEDLME@?$DMmV?$DO?$AA@		; `string'
PUBLIC	??_C@_0N@GIAFMJLM@set?5VA?5in?5mV?$AA@		; `string'
PUBLIC	??_C@_04NMLHHEML@poff?$AA@			; `string'
PUBLIC	??_C@_0BF@FKKLNFPN@switch?5ROC?5power?5off?$AA@	; `string'
PUBLIC	??_C@_03NHBEKEL@pon?$AA@			; `string'
PUBLIC	??_C@_0BE@MCACKIJL@switch?5ROC?5power?5on?$AA@	; `string'
PUBLIC	??_C@_04HEAIDIK@lcds?$AA@			; `string'
PUBLIC	??_C@_0M@FBIDJPE@LCDS?5inputs?$AA@		; `string'
PUBLIC	??_C@_04GAIHCECH@lvds?$AA@			; `string'
PUBLIC	??_C@_0M@NKLJFBHN@LVDS?5inputs?$AA@		; `string'
PUBLIC	??_C@_09OCABNPKC@sigoffset?$AA@			; `string'
PUBLIC	??_C@_08EOEELJMH@?$DMoffset?$DO?$AA@		; `string'
PUBLIC	??_C@_0BF@MLCJGEOD@output?5signal?5offset?$AA@	; `string'
PUBLIC	??_C@_07MLKEHAFH@tinmode?$AA@			; `string'
PUBLIC	??_C@_08PCILFICB@tin?5mode?$AA@			; `string'
PUBLIC	??_C@_07MPMHHHIL@ctrmode?$AA@			; `string'
PUBLIC	??_C@_08HNOKKFNJ@ctr?5mode?$AA@			; `string'
PUBLIC	??_C@_07FBOAKKFL@sdamode?$AA@			; `string'
PUBLIC	??_C@_08PLKHFANA@sda?5mode?$AA@			; `string'
PUBLIC	??_C@_07LPCPPGHB@clkmode?$AA@			; `string'
PUBLIC	??_C@_06BJMFGBFN@?$DMmode?$DO?$AA@		; `string'
PUBLIC	??_C@_08CAPCFGFK@clk?5mode?$AA@			; `string'
PUBLIC	??_C@_06JLIJDLPF@tinlvl?$AA@			; `string'
PUBLIC	??_C@_0BB@BKFCBNPN@tin?5signel?5level?$AA@	; `string'
PUBLIC	??_C@_06CDKIPCHD@ctrlvl?$AA@			; `string'
PUBLIC	??_C@_0BB@MDGLLCKH@ctr?5signel?5level?$AA@	; `string'
PUBLIC	??_C@_06GAOAIBHE@sdalvl?$AA@			; `string'
PUBLIC	??_C@_0BB@GHACOAHC@sda?5signel?5level?$AA@	; `string'
PUBLIC	??_C@_06KBNNIHHG@clklvl?$AA@			; `string'
PUBLIC	??_C@_07CGPCOFLL@?$DMlevel?$DO?$AA@		; `string'
PUBLIC	??_C@_0BB@DJKDMKFK@clk?5signal?5level?$AA@	; `string'
PUBLIC	??_C@_03IGJOKBKO@tin?$AA@			; `string'
PUBLIC	??_C@_09BNGEJAOD@tin?5delay?$AA@		; `string'
PUBLIC	??_C@_03LJNJKDPG@ctr?$AA@			; `string'
PUBLIC	??_C@_09KOINILDA@ctr?5delay?$AA@		; `string'
PUBLIC	??_C@_03JEAJBGIL@sda?$AA@			; `string'
PUBLIC	??_C@_09NHNHHOGB@sda?5delay?$AA@		; `string'
PUBLIC	??_C@_03DAOMPICG@clk?$AA@			; `string'
PUBLIC	??_C@_07KKMCNCDD@?$DMdelay?$DO?$AA@		; `string'
PUBLIC	??_C@_09NKGBEBFJ@clk?5delay?$AA@		; `string'
PUBLIC	??_C@_07LEPFLFDH@stretch?$AA@			; `string'
PUBLIC	??_C@_0BG@NCJGPHBE@?$DMsrc?$DO?5?$DMdelay?$DO?5?$DMwidth?$DO?$AA@ ; `string'
PUBLIC	??_C@_0O@HFPOEM@stretch?5clock?$AA@		; `string'
PUBLIC	??_C@_04NBHBKIBN@fsel?$AA@			; `string'
PUBLIC	??_C@_09INGDEAEB@?$DMfreqdiv?$DO?$AA@		; `string'
PUBLIC	??_C@_0BH@LMKLAOEO@clock?5frequency?5select?$AA@ ; `string'
PUBLIC	??_C@_05LFDKPHJH@clkok?$AA@			; `string'
PUBLIC	??_C@_0BO@LAJLJCLL@Check?5if?5ext?5clock?5is?5present?$AA@ ; `string'
PUBLIC	??_C@_06CJDGHEKM@clksrc?$AA@			; `string'
PUBLIC	??_C@_08HAGFBHGO@?$DMsource?$DO?$AA@		; `string'
PUBLIC	??_C@_0BE@DEOPGMAG@Select?5clock?5source?$AA@	; `string'
PUBLIC	??_C@_06IMFNJDMG@mdelay?$AA@			; `string'
PUBLIC	??_C@_04IDDCLPMP@?$DMms?$DO?$AA@		; `string'
PUBLIC	??_C@_0BI@LBLEFODE@waits?5?$DMms?$DO?5milliseconds?$AA@ ; `string'
PUBLIC	??_C@_06NIGMEBGP@udelay?$AA@			; `string'
PUBLIC	??_C@_04BGJPMALP@?$DMus?$DO?$AA@		; `string'
PUBLIC	??_C@_0BI@JJHALEMA@waits?5?$DMus?$DO?5microseconds?$AA@ ; `string'
PUBLIC	??_C@_05LPGCOFJG@init2?$AA@			; `string'
PUBLIC	??_C@_09CEHFMHEJ@inits?5I2C?$AA@		; `string'
PUBLIC	??_C@_05MEHLAELG@clear?$AA@			; `string'
PUBLIC	??_C@_0BH@HJAFOACO@clears?5usb?5data?5buffer?$AA@ ; `string'
PUBLIC	??_C@_05GLCAEPFP@flush?$AA@			; `string'
PUBLIC	??_C@_0BD@NBODGCAO@flushes?5usb?5buffer?$AA@	; `string'
PUBLIC	??_C@_04HKFDNBLD@init?$AA@			; `string'
PUBLIC	??_C@_0BE@GHKMBLJD@inits?5the?5testboard?$AA@	; `string'
PUBLIC	??_C@_07MHIEOKFE@boardid?$AA@			; `string'
PUBLIC	??_C@_0N@KIDOIMND@get?5board?5id?$AA@		; `string'
PUBLIC	??_C@_07CPCPJPKL@version?$AA@			; `string'
PUBLIC	??_C@_0BL@FHEPIIAB@shows?5DTB?5software?5version?$AA@ ; `string'
PUBLIC	??_C@_03MDPKMNBM@ver?$AA@			; `string'
PUBLIC	??_C@_0CC@CGFDCNF@shows?5DTB?5software?5version?5numbe@ ; `string'
PUBLIC	??_C@_04NIDJFNBE@info?$AA@			; `string'
PUBLIC	??_C@_0BH@HEFMDKIG@show?5detailed?5DTB?5info?$AA@ ; `string'
PUBLIC	??_C@_07PHEEEOFC@rpcinfo?$AA@			; `string'
PUBLIC	??_C@_0BH@JJAKCEEG@list?5all?5DTB?5functions?$AA@ ; `string'
PUBLIC	??_C@_07NACIIPHM@upgrade?$AA@			; `string'
PUBLIC	??_C@_0L@JEMCAPAJ@?$DMfilename?$DO?$AA@		; `string'
PUBLIC	??_C@_0M@GMEDHEGC@upgrade?5DTB?$AA@		; `string'
PUBLIC	??_C@_03MGHMBJCF@log?$AA@			; `string'
PUBLIC	??_C@_06HAIHALMP@?$DMtext?$DO?$AA@		; `string'
PUBLIC	??_C@_0BI@PAJJCIHA@writes?5text?5to?5log?5file?$AA@ ; `string'
PUBLIC	??_C@_06NFAFNNAC@setled?$AA@			; `string'
PUBLIC	??_C@_06GBKFJNBA@?$DMmask?$DO?$AA@		; `string'
PUBLIC	??_C@_0N@HMCNNAJH@set?5atb?5LEDs?$AA@		; `string'
PUBLIC	??_C@_07HPKCDJCF@welcome?$AA@			; `string'
PUBLIC	??_C@_0BA@JCFODCLB@blink?5with?5LEDs?$AA@	; `string'
PUBLIC	??_C@_07MIAMGNCH@rpclink?$AA@			; `string'
PUBLIC	??_C@_0BH@OGGGGDPN@link?5all?5DTB?5functions?$AA@ ; `string'
PUBLIC	??_C@_05LBOHBHFK@close?$AA@			; `string'
PUBLIC	??_C@_0BF@GHMKFAJA@close?5DTB?5connection?$AA@	; `string'
PUBLIC	??_C@_04PMOCAHAA@open?$AA@			; `string'
PUBLIC	??_C@_08GPAIMGMB@?$FL?$DMname?$DO?$FN?$AA@	; `string'
PUBLIC	??_C@_0BH@PCINJPNM@open?5a?5DTB?5?$CIwith?5name?$CJ?$AA@ ; `string'
PUBLIC	??_C@_04BMFHCNCO@scan?$AA@			; `string'
PUBLIC	??_C@_00CNPNBAHC@?$AA@				; `string'
PUBLIC	??_C@_0CA@DMDEGAOE@Get?5infos?5of?5all?5connected?5DTBs?$AA@ ; `string'
PUBLIC	??_C@_03GOMMIJBO@dtb?$AA@			; `string'
PUBLIC	?cmd@@YAXXZ					; cmd
PUBLIC	??_R0?AVCRpcError@@@8				; CRpcError `RTTI Type Descriptor'
EXTRN	?What@CRpcError@@QAEXXZ:PROC			; CRpcError::What
EXTRN	?run@CInterpreter@@QAE_NPAU_iobuf@@H@Z:PROC	; CInterpreter::run
EXTRN	?SetScriptPath@CInterpreter@@QAEXQBD@Z:PROC	; CInterpreter::SetScriptPath
EXTRN	?cmd_deser160@@YA_NAAVCCmdLine@@@Z:PROC		; cmd_deser160
EXTRN	?cmd_shmoo@@YA_NAAVCCmdLine@@@Z:PROC		; cmd_shmoo
EXTRN	?cmd_ethrx@@YA_NAAVCCmdLine@@@Z:PROC		; cmd_ethrx
EXTRN	?cmd_ethsend@@YA_NAAVCCmdLine@@@Z:PROC		; cmd_ethsend
EXTRN	?cmd_analyze@@YA_NAAVCCmdLine@@@Z:PROC		; cmd_analyze
EXTRN	?cmd_daqreadm@@YA_NAAVCCmdLine@@@Z:PROC		; cmd_daqreadm
EXTRN	?cmd_daqtest2@@YA_NAAVCCmdLine@@@Z:PROC		; cmd_daqtest2
EXTRN	?cmd_daqtest@@YA_NAAVCCmdLine@@@Z:PROC		; cmd_daqtest
EXTRN	?cmd_vectortest@@YA_NAAVCCmdLine@@@Z:PROC	; cmd_vectortest
EXTRN	?cmd_showrocdata@@YA_NAAVCCmdLine@@@Z:PROC	; cmd_showrocdata
EXTRN	?cmd_decoding@@YA_NAAVCCmdLine@@@Z:PROC		; cmd_decoding
EXTRN	?cmd_showsda@@YA_NAAVCCmdLine@@@Z:PROC		; cmd_showsda
EXTRN	?cmd_showctr@@YA_NAAVCCmdLine@@@Z:PROC		; cmd_showctr
EXTRN	?cmd_showclk@@YA_NAAVCCmdLine@@@Z:PROC		; cmd_showclk
EXTRN	?cmd_goto@@YA_NAAVCCmdLine@@@Z:PROC		; cmd_goto
EXTRN	?cmd_next@@YA_NAAVCCmdLine@@@Z:PROC		; cmd_next
EXTRN	?cmd_first@@YA_NAAVCCmdLine@@@Z:PROC		; cmd_first
EXTRN	?cmd_go@@YA_NAAVCCmdLine@@@Z:PROC		; cmd_go
EXTRN	?cmd_chippos@@YA_NAAVCCmdLine@@@Z:PROC		; cmd_chippos
EXTRN	?cmd_test@@YA_NAAVCCmdLine@@@Z:PROC		; cmd_test
EXTRN	?cmd_contact@@YA_NAAVCCmdLine@@@Z:PROC		; cmd_contact
EXTRN	?cmd_sep@@YA_NAAVCCmdLine@@@Z:PROC		; cmd_sep
EXTRN	?cmd_pr@@YA_NAAVCCmdLine@@@Z:PROC		; cmd_pr
EXTRN	?cmd_roctype@@YA_NAAVCCmdLine@@@Z:PROC		; cmd_roctype
EXTRN	?cmd_gettemp@@YA_NAAVCCmdLine@@@Z:PROC		; cmd_gettemp
EXTRN	?cmd_lldr@@YA_NAAVCCmdLine@@@Z:PROC		; cmd_lldr
EXTRN	?cmd_lldw@@YA_NAAVCCmdLine@@@Z:PROC		; cmd_lldw
EXTRN	?cmd_mask@@YA_NAAVCCmdLine@@@Z:PROC		; cmd_mask
EXTRN	?cmd_cald@@YA_NAAVCCmdLine@@@Z:PROC		; cmd_cald
EXTRN	?cmd_cals@@YA_NAAVCCmdLine@@@Z:PROC		; cmd_cals
EXTRN	?cmd_cal@@YA_NAAVCCmdLine@@@Z:PROC		; cmd_cal
EXTRN	?cmd_pixd@@YA_NAAVCCmdLine@@@Z:PROC		; cmd_pixd
EXTRN	?cmd_pixe@@YA_NAAVCCmdLine@@@Z:PROC		; cmd_pixe
EXTRN	?cmd_cold@@YA_NAAVCCmdLine@@@Z:PROC		; cmd_cold
EXTRN	?cmd_cole@@YA_NAAVCCmdLine@@@Z:PROC		; cmd_cole
EXTRN	?cmd_ctl@@YA_NAAVCCmdLine@@@Z:PROC		; cmd_ctl
EXTRN	?cmd_wbc@@YA_NAAVCCmdLine@@@Z:PROC		; cmd_wbc
EXTRN	?cmd_vcal@@YA_NAAVCCmdLine@@@Z:PROC		; cmd_vcal
EXTRN	?cmd_vthr@@YA_NAAVCCmdLine@@@Z:PROC		; cmd_vthr
EXTRN	?cmd_vtrim@@YA_NAAVCCmdLine@@@Z:PROC		; cmd_vtrim
EXTRN	?cmd_vana@@YA_NAAVCCmdLine@@@Z:PROC		; cmd_vana
EXTRN	?cmd_dac@@YA_NAAVCCmdLine@@@Z:PROC		; cmd_dac
EXTRN	?cmd_select@@YA_NAAVCCmdLine@@@Z:PROC		; cmd_select
EXTRN	?cmd_tbmset@@YA_NAAVCCmdLine@@@Z:PROC		; cmd_tbmset
EXTRN	?cmd_modsel@@YA_NAAVCCmdLine@@@Z:PROC		; cmd_modsel
EXTRN	?cmd_tbmsel@@YA_NAAVCCmdLine@@@Z:PROC		; cmd_tbmsel
EXTRN	?cmd_tbmdis@@YA_NAAVCCmdLine@@@Z:PROC		; cmd_tbmdis
EXTRN	?cmd_dseloff@@YA_NAAVCCmdLine@@@Z:PROC		; cmd_dseloff
EXTRN	?cmd_dselsim@@YA_NAAVCCmdLine@@@Z:PROC		; cmd_dselsim
EXTRN	?cmd_dselroca@@YA_NAAVCCmdLine@@@Z:PROC		; cmd_dselroca
EXTRN	?cmd_dselroc@@YA_NAAVCCmdLine@@@Z:PROC		; cmd_dselroc
EXTRN	?cmd_dmodres@@YA_NAAVCCmdLine@@@Z:PROC		; cmd_dmodres
EXTRN	?cmd_dselmod@@YA_NAAVCCmdLine@@@Z:PROC		; cmd_dselmod
EXTRN	?cmd_dreada@@YA_NAAVCCmdLine@@@Z:PROC		; cmd_dreada
EXTRN	?cmd_dreadm@@YA_NAAVCCmdLine@@@Z:PROC		; cmd_dreadm
EXTRN	?cmd_dreadr@@YA_NAAVCCmdLine@@@Z:PROC		; cmd_dreadr
EXTRN	?cmd_dread@@YA_NAAVCCmdLine@@@Z:PROC		; cmd_dread
EXTRN	?cmd_dsize@@YA_NAAVCCmdLine@@@Z:PROC		; cmd_dsize
EXTRN	?cmd_dstop@@YA_NAAVCCmdLine@@@Z:PROC		; cmd_dstop
EXTRN	?cmd_dstart@@YA_NAAVCCmdLine@@@Z:PROC		; cmd_dstart
EXTRN	?cmd_dclose@@YA_NAAVCCmdLine@@@Z:PROC		; cmd_dclose
EXTRN	?cmd_dopen@@YA_NAAVCCmdLine@@@Z:PROC		; cmd_dopen
EXTRN	?cmd_pgloop@@YA_NAAVCCmdLine@@@Z:PROC		; cmd_pgloop
EXTRN	?cmd_pgtrig@@YA_NAAVCCmdLine@@@Z:PROC		; cmd_pgtrig
EXTRN	?cmd_pgsingle@@YA_NAAVCCmdLine@@@Z:PROC		; cmd_pgsingle
EXTRN	?cmd_pgstop@@YA_NAAVCCmdLine@@@Z:PROC		; cmd_pgstop
EXTRN	?cmd_pgset@@YA_NAAVCCmdLine@@@Z:PROC		; cmd_pgset
EXTRN	?cmd_probeadc@@YA_NAAVCCmdLine@@@Z:PROC		; cmd_probeadc
EXTRN	?cmd_a2@@YA_NAAVCCmdLine@@@Z:PROC		; cmd_a2
EXTRN	?cmd_a1@@YA_NAAVCCmdLine@@@Z:PROC		; cmd_a1
EXTRN	?cmd_d2@@YA_NAAVCCmdLine@@@Z:PROC		; cmd_d2
EXTRN	?cmd_d1@@YA_NAAVCCmdLine@@@Z:PROC		; cmd_d1
EXTRN	?cmd_rocaddr@@YA_NAAVCCmdLine@@@Z:PROC		; cmd_rocaddr
EXTRN	?cmd_status@@YA_NAAVCCmdLine@@@Z:PROC		; cmd_status
EXTRN	?cmd_resoff@@YA_NAAVCCmdLine@@@Z:PROC		; cmd_resoff
EXTRN	?cmd_reson@@YA_NAAVCCmdLine@@@Z:PROC		; cmd_reson
EXTRN	?cmd_hvoff@@YA_NAAVCCmdLine@@@Z:PROC		; cmd_hvoff
EXTRN	?cmd_hvon@@YA_NAAVCCmdLine@@@Z:PROC		; cmd_hvon
EXTRN	?cmd_getid@@YA_NAAVCCmdLine@@@Z:PROC		; cmd_getid
EXTRN	?cmd_getia@@YA_NAAVCCmdLine@@@Z:PROC		; cmd_getia
EXTRN	?cmd_getvd@@YA_NAAVCCmdLine@@@Z:PROC		; cmd_getvd
EXTRN	?cmd_getva@@YA_NAAVCCmdLine@@@Z:PROC		; cmd_getva
EXTRN	?cmd_id@@YA_NAAVCCmdLine@@@Z:PROC		; cmd_id
EXTRN	?cmd_ia@@YA_NAAVCCmdLine@@@Z:PROC		; cmd_ia
EXTRN	?cmd_vd@@YA_NAAVCCmdLine@@@Z:PROC		; cmd_vd
EXTRN	?cmd_va@@YA_NAAVCCmdLine@@@Z:PROC		; cmd_va
EXTRN	?cmd_poff@@YA_NAAVCCmdLine@@@Z:PROC		; cmd_poff
EXTRN	?cmd_pon@@YA_NAAVCCmdLine@@@Z:PROC		; cmd_pon
EXTRN	?cmd_lcds@@YA_NAAVCCmdLine@@@Z:PROC		; cmd_lcds
EXTRN	?cmd_lvds@@YA_NAAVCCmdLine@@@Z:PROC		; cmd_lvds
EXTRN	?cmd_sigoffset@@YA_NAAVCCmdLine@@@Z:PROC	; cmd_sigoffset
EXTRN	?cmd_tinmode@@YA_NAAVCCmdLine@@@Z:PROC		; cmd_tinmode
EXTRN	?cmd_ctrmode@@YA_NAAVCCmdLine@@@Z:PROC		; cmd_ctrmode
EXTRN	?cmd_sdamode@@YA_NAAVCCmdLine@@@Z:PROC		; cmd_sdamode
EXTRN	?cmd_clkmode@@YA_NAAVCCmdLine@@@Z:PROC		; cmd_clkmode
EXTRN	?cmd_tinlvl@@YA_NAAVCCmdLine@@@Z:PROC		; cmd_tinlvl
EXTRN	?cmd_ctrlvl@@YA_NAAVCCmdLine@@@Z:PROC		; cmd_ctrlvl
EXTRN	?cmd_sdalvl@@YA_NAAVCCmdLine@@@Z:PROC		; cmd_sdalvl
EXTRN	?cmd_clklvl@@YA_NAAVCCmdLine@@@Z:PROC		; cmd_clklvl
EXTRN	?cmd_tin@@YA_NAAVCCmdLine@@@Z:PROC		; cmd_tin
EXTRN	?cmd_ctr@@YA_NAAVCCmdLine@@@Z:PROC		; cmd_ctr
EXTRN	?cmd_sda@@YA_NAAVCCmdLine@@@Z:PROC		; cmd_sda
EXTRN	?cmd_clk@@YA_NAAVCCmdLine@@@Z:PROC		; cmd_clk
EXTRN	?cmd_stretch@@YA_NAAVCCmdLine@@@Z:PROC		; cmd_stretch
EXTRN	?cmd_fsel@@YA_NAAVCCmdLine@@@Z:PROC		; cmd_fsel
EXTRN	?cmd_clkok@@YA_NAAVCCmdLine@@@Z:PROC		; cmd_clkok
EXTRN	?cmd_clksrc@@YA_NAAVCCmdLine@@@Z:PROC		; cmd_clksrc
EXTRN	?cmd_mdelay@@YA_NAAVCCmdLine@@@Z:PROC		; cmd_mdelay
EXTRN	?cmd_udelay@@YA_NAAVCCmdLine@@@Z:PROC		; cmd_udelay
EXTRN	?cmd_init2@@YA_NAAVCCmdLine@@@Z:PROC		; cmd_init2
EXTRN	?cmd_clear@@YA_NAAVCCmdLine@@@Z:PROC		; cmd_clear
EXTRN	?cmd_flush@@YA_NAAVCCmdLine@@@Z:PROC		; cmd_flush
EXTRN	?cmd_init@@YA_NAAVCCmdLine@@@Z:PROC		; cmd_init
EXTRN	?cmd_boardid@@YA_NAAVCCmdLine@@@Z:PROC		; cmd_boardid
EXTRN	?cmd_version@@YA_NAAVCCmdLine@@@Z:PROC		; cmd_version
EXTRN	?cmd_ver@@YA_NAAVCCmdLine@@@Z:PROC		; cmd_ver
EXTRN	?cmd_info@@YA_NAAVCCmdLine@@@Z:PROC		; cmd_info
EXTRN	?cmd_rpcinfo@@YA_NAAVCCmdLine@@@Z:PROC		; cmd_rpcinfo
EXTRN	?cmd_upgrade@@YA_NAAVCCmdLine@@@Z:PROC		; cmd_upgrade
EXTRN	?cmd_log@@YA_NAAVCCmdLine@@@Z:PROC		; cmd_log
EXTRN	?cmd_setled@@YA_NAAVCCmdLine@@@Z:PROC		; cmd_setled
EXTRN	?cmd_welcome@@YA_NAAVCCmdLine@@@Z:PROC		; cmd_welcome
EXTRN	?cmd_rpclink@@YA_NAAVCCmdLine@@@Z:PROC		; cmd_rpclink
EXTRN	?cmd_close@@YA_NAAVCCmdLine@@@Z:PROC		; cmd_close
EXTRN	?cmd_open@@YA_NAAVCCmdLine@@@Z:PROC		; cmd_open
EXTRN	?AddCommand@CInterpreter@@QAEXQBDP6A_NAAVCCmdLine@@@Z00@Z:PROC ; CInterpreter::AddCommand
EXTRN	?cmd_scan@@YA_NAAVCCmdLine@@@Z:PROC		; cmd_scan
EXTRN	?AddHelpCategory@CInterpreter@@QAEXQBD@Z:PROC	; CInterpreter::AddHelpCategory
EXTRN	?cmd_intp@@3VCInterpreter@@A:BYTE		; cmd_intp
EXTRN	___security_cookie:DWORD
EXTRN	___CxxFrameHandler3:PROC
EXTRN	@__security_check_cookie@4:PROC
EXTRN	??_7type_info@@6B@:QWORD			; type_info::`vftable'
;	COMDAT ??_R0?AVCRpcError@@@8
_DATA	SEGMENT
??_R0?AVCRpcError@@@8 DD FLAT:??_7type_info@@6B@	; CRpcError `RTTI Type Descriptor'
	DD	00H
	DB	'.?AVCRpcError@@', 00H
_DATA	ENDS
;	COMDAT ??_C@_01BDACAMKP@h?$AA@
CONST	SEGMENT
??_C@_01BDACAMKP@h?$AA@ DB 'h', 00H			; `string'
CONST	ENDS
;	COMDAT ??_C@_0M@LKPDCNLD@simple?5help?$AA@
CONST	SEGMENT
??_C@_0M@LKPDCNLD@simple?5help?$AA@ DB 'simple help', 00H ; `string'
CONST	ENDS
;	COMDAT ??_C@_08DBOOECMD@deser160?$AA@
CONST	SEGMENT
??_C@_08DBOOECMD@deser160?$AA@ DB 'deser160', 00H	; `string'
CONST	ENDS
;	COMDAT ??_C@_0P@MFIKDOFK@align?5deser160?$AA@
CONST	SEGMENT
??_C@_0P@MFIKDOFK@align?5deser160?$AA@ DB 'align deser160', 00H ; `string'
CONST	ENDS
;	COMDAT ??_C@_05CGLMJBE@shmoo?$AA@
CONST	SEGMENT
??_C@_05CGLMJBE@shmoo?$AA@ DB 'shmoo', 00H		; `string'
CONST	ENDS
;	COMDAT ??_C@_0BP@BNPMMADJ@shmoo?5vx?5xrange?5vy?5ymin?5yrange?$AA@
CONST	SEGMENT
??_C@_0BP@BNPMMADJ@shmoo?5vx?5xrange?5vy?5ymin?5yrange?$AA@ DB 'shmoo vx '
	DB	'xrange vy ymin yrange', 00H			; `string'
CONST	ENDS
;	COMDAT ??_C@_05FEFHBGJG@ethrx?$AA@
CONST	SEGMENT
??_C@_05FEFHBGJG@ethrx?$AA@ DB 'ethrx', 00H		; `string'
CONST	ENDS
;	COMDAT ??_C@_0CB@OFOKPEOK@shows?5number?5of?5received?5packets@
CONST	SEGMENT
??_C@_0CB@OFOKPEOK@shows?5number?5of?5received?5packets@ DB 'shows number'
	DB	' of received packets', 00H			; `string'
CONST	ENDS
;	COMDAT ??_C@_07PAECCOB@ethsend?$AA@
CONST	SEGMENT
??_C@_07PAECCOB@ethsend?$AA@ DB 'ethsend', 00H		; `string'
CONST	ENDS
;	COMDAT ??_C@_08OOGHEFMC@?$DMstring?$DO?$AA@
CONST	SEGMENT
??_C@_08OOGHEFMC@?$DMstring?$DO?$AA@ DB '<string>', 00H	; `string'
CONST	ENDS
;	COMDAT ??_C@_0CD@GIPCAEGN@send?5?$DMstring?$DO?5in?5a?5Ethernet?5pack@
CONST	SEGMENT
??_C@_0CD@GIPCAEGN@send?5?$DMstring?$DO?5in?5a?5Ethernet?5pack@ DB 'send '
	DB	'<string> in a Ethernet packet', 00H		; `string'
CONST	ENDS
;	COMDAT ??_C@_07JFKEGMMK@analyze?$AA@
CONST	SEGMENT
??_C@_07JFKEGMMK@analyze?$AA@ DB 'analyze', 00H		; `string'
CONST	ENDS
;	COMDAT ??_C@_0BE@OCIALKL@test?5analyzer?5chain?$AA@
CONST	SEGMENT
??_C@_0BE@OCIALKL@test?5analyzer?5chain?$AA@ DB 'test analyzer chain', 00H ; `string'
CONST	ENDS
;	COMDAT ??_C@_08EFAIPCME@daqreadm?$AA@
CONST	SEGMENT
??_C@_08EFAIPCME@daqreadm?$AA@ DB 'daqreadm', 00H	; `string'
CONST	ENDS
;	COMDAT ??_C@_0DI@CKEODELC@read?0?5decode?5and?5list?5continous?5@
CONST	SEGMENT
??_C@_0DI@CKEODELC@read?0?5decode?5and?5list?5continous?5@ DB 'read, deco'
	DB	'de and list continous data stream from module', 00H ; `string'
CONST	ENDS
;	COMDAT ??_C@_08EIEEGMCG@daqtest2?$AA@
CONST	SEGMENT
??_C@_08EIEEGMCG@daqtest2?$AA@ DB 'daqtest2', 00H	; `string'
CONST	ENDS
;	COMDAT ??_C@_0CJ@OPPMLNKG@test?5DAQ?5read?5function?5in?5contin@
CONST	SEGMENT
??_C@_0CJ@OPPMLNKG@test?5DAQ?5read?5function?5in?5contin@ DB 'test DAQ re'
	DB	'ad function in continous mode', 00H		; `string'
CONST	ENDS
;	COMDAT ??_C@_07DOINDMCH@daqtest?$AA@
CONST	SEGMENT
??_C@_07DOINDMCH@daqtest?$AA@ DB 'daqtest', 00H		; `string'
CONST	ENDS
;	COMDAT ??_C@_0BH@JLJMDOGN@test?5DAQ?5read?5function?$AA@
CONST	SEGMENT
??_C@_0BH@JLJMDOGN@test?5DAQ?5read?5function?$AA@ DB 'test DAQ read funct'
	DB	'ion', 00H					; `string'
CONST	ENDS
;	COMDAT ??_C@_0L@NOIPIAJP@vectortest?$AA@
CONST	SEGMENT
??_C@_0L@NOIPIAJP@vectortest?$AA@ DB 'vectortest', 00H	; `string'
CONST	ENDS
;	COMDAT ??_C@_08HFIJHNHI@?$DMlength?$DO?$AA@
CONST	SEGMENT
??_C@_08HFIJHNHI@?$DMlength?$DO?$AA@ DB '<length>', 00H	; `string'
CONST	ENDS
;	COMDAT ??_C@_0BG@PBGDOLGP@send?1receive?5a?5vector?$AA@
CONST	SEGMENT
??_C@_0BG@PBGDOLGP@send?1receive?5a?5vector?$AA@ DB 'send/receive a vecto'
	DB	'r', 00H					; `string'
CONST	ENDS
;	COMDAT ??_C@_0M@FEBKOAJM@showrocdata?$AA@
CONST	SEGMENT
??_C@_0M@FEBKOAJM@showrocdata?$AA@ DB 'showrocdata', 00H ; `string'
CONST	ENDS
;	COMDAT ??_C@_08IBOHAMJP@decoding?$AA@
CONST	SEGMENT
??_C@_08IBOHAMJP@decoding?$AA@ DB 'decoding', 00H	; `string'
CONST	ENDS
;	COMDAT ??_C@_07PILJADFP@showsda?$AA@
CONST	SEGMENT
??_C@_07PILJADFP@showsda?$AA@ DB 'showsda', 00H		; `string'
CONST	ENDS
;	COMDAT ??_C@_07NFGJLGCC@showctr?$AA@
CONST	SEGMENT
??_C@_07NFGJLGCC@showctr?$AA@ DB 'showctr', 00H		; `string'
CONST	ENDS
;	COMDAT ??_C@_07FMFMONPC@showclk?$AA@
CONST	SEGMENT
??_C@_07FMFMONPC@showclk?$AA@ DB 'showclk', 00H		; `string'
CONST	ENDS
;	COMDAT ??_C@_03MDPCKCMI@ext?$AA@
CONST	SEGMENT
??_C@_03MDPCKCMI@ext?$AA@ DB 'ext', 00H			; `string'
CONST	ENDS
;	COMDAT ??_C@_04MABHPDAO@goto?$AA@
CONST	SEGMENT
??_C@_04MABHPDAO@goto?$AA@ DB 'goto', 00H		; `string'
CONST	ENDS
;	COMDAT ??_C@_0BE@JLBNNIIN@go?5to?5specified?5die?$AA@
CONST	SEGMENT
??_C@_0BE@JLBNNIIN@go?5to?5specified?5die?$AA@ DB 'go to specified die', 00H ; `string'
CONST	ENDS
;	COMDAT ??_C@_04CJGEDOF@next?$AA@
CONST	SEGMENT
??_C@_04CJGEDOF@next?$AA@ DB 'next', 00H		; `string'
CONST	ENDS
;	COMDAT ??_C@_0P@FKIOBIAB@go?5to?5next?5die?$AA@
CONST	SEGMENT
??_C@_0P@FKIOBIAB@go?5to?5next?5die?$AA@ DB 'go to next die', 00H ; `string'
CONST	ENDS
;	COMDAT ??_C@_05NIGAKFML@first?$AA@
CONST	SEGMENT
??_C@_05NIGAKFML@first?$AA@ DB 'first', 00H		; `string'
CONST	ENDS
;	COMDAT ??_C@_0CE@JKCOHBHD@go?5to?5first?5die?5and?5clear?5wafer?5@
CONST	SEGMENT
??_C@_0CE@JKCOHBHD@go?5to?5first?5die?5and?5clear?5wafer?5@ DB 'go to fir'
	DB	'st die and clear wafer map', 00H		; `string'
CONST	ENDS
;	COMDAT ??_C@_02KPEDIMCA@go?$AA@
CONST	SEGMENT
??_C@_02KPEDIMCA@go?$AA@ DB 'go', 00H			; `string'
CONST	ENDS
;	COMDAT ??_C@_09LKIINAAH@init?$HMcont?$AA@
CONST	SEGMENT
??_C@_09LKIINAAH@init?$HMcont?$AA@ DB 'init|cont', 00H	; `string'
CONST	ENDS
;	COMDAT ??_C@_0CG@LHCMJAFK@start?5wafer?5test?5?$CIpress?5?$DMcr?$DO?5to?5@
CONST	SEGMENT
??_C@_0CG@LHCMJAFK@start?5wafer?5test?5?$CIpress?5?$DMcr?$DO?5to?5@ DB 's'
	DB	'tart wafer test (press <cr> to stop)', 00H	; `string'
CONST	ENDS
;	COMDAT ??_C@_07IGGPDNKF@chippos?$AA@
CONST	SEGMENT
??_C@_07IGGPDNKF@chippos?$AA@ DB 'chippos', 00H		; `string'
CONST	ENDS
;	COMDAT ??_C@_06FEJAPEPF@?$DMABCD?$DO?$AA@
CONST	SEGMENT
??_C@_06FEJAPEPF@?$DMABCD?$DO?$AA@ DB '<ABCD>', 00H	; `string'
CONST	ENDS
;	COMDAT ??_C@_0BK@GJLFMLID@move?5to?5chip?5A?0?5B?0?5C?5or?5D?$AA@
CONST	SEGMENT
??_C@_0BK@GJLFMLID@move?5to?5chip?5A?0?5B?0?5C?5or?5D?$AA@ DB 'move to ch'
	DB	'ip A, B, C or D', 00H			; `string'
CONST	ENDS
;	COMDAT ??_C@_09JEKCBIKL@?$DMchip?5id?$DO?$AA@
CONST	SEGMENT
??_C@_09JEKCBIKL@?$DMchip?5id?$DO?$AA@ DB '<chip id>', 00H ; `string'
CONST	ENDS
;	COMDAT ??_C@_0O@CBCENHAB@run?5chip?5test?$AA@
CONST	SEGMENT
??_C@_0O@CBCENHAB@run?5chip?5test?$AA@ DB 'run chip test', 00H ; `string'
CONST	ENDS
;	COMDAT ??_C@_07FLDMKAK@contact?$AA@
CONST	SEGMENT
??_C@_07FLDMKAK@contact?$AA@ DB 'contact', 00H		; `string'
CONST	ENDS
;	COMDAT ??_C@_0BG@FJEKPLJM@prober?5z?9axis?5contact?$AA@
CONST	SEGMENT
??_C@_0BG@FJEKPLJM@prober?5z?9axis?5contact?$AA@ DB 'prober z-axis contac'
	DB	't', 00H					; `string'
CONST	ENDS
;	COMDAT ??_C@_03MGBCFPKM@sep?$AA@
CONST	SEGMENT
??_C@_03MGBCFPKM@sep?$AA@ DB 'sep', 00H			; `string'
CONST	ENDS
;	COMDAT ??_C@_0BJ@JJOAHGHO@prober?5z?9axis?5separation?$AA@
CONST	SEGMENT
??_C@_0BJ@JJOAHGHO@prober?5z?9axis?5separation?$AA@ DB 'prober z-axis sep'
	DB	'aration', 00H				; `string'
CONST	ENDS
;	COMDAT ??_C@_02EJEGFFMJ@pr?$AA@
CONST	SEGMENT
??_C@_02EJEGFFMJ@pr?$AA@ DB 'pr', 00H			; `string'
CONST	ENDS
;	COMDAT ??_C@_09CNCEGNKE@?$DMcommand?$DO?$AA@
CONST	SEGMENT
??_C@_09CNCEGNKE@?$DMcommand?$DO?$AA@ DB '<command>', 00H ; `string'
CONST	ENDS
;	COMDAT ??_C@_0BH@ILPOGPCN@send?5command?5to?5prober?$AA@
CONST	SEGMENT
??_C@_0BH@ILPOGPCN@send?5command?5to?5prober?$AA@ DB 'send command to pro'
	DB	'ber', 00H					; `string'
CONST	ENDS
;	COMDAT ??_C@_07NBCIKJCI@roctype?$AA@
CONST	SEGMENT
??_C@_07NBCIKJCI@roctype?$AA@ DB 'roctype', 00H		; `string'
CONST	ENDS
;	COMDAT ??_C@_07HLGBALKB@ana?$HMdig?$AA@
CONST	SEGMENT
??_C@_07HLGBALKB@ana?$HMdig?$AA@ DB 'ana|dig', 00H	; `string'
CONST	ENDS
;	COMDAT ??_C@_0BJ@PKLIFJML@choose?5ROC?5type?5for?5test?$AA@
CONST	SEGMENT
??_C@_0BJ@PKLIFJML@choose?5ROC?5type?5for?5test?$AA@ DB 'choose ROC type '
	DB	'for test', 00H				; `string'
CONST	ENDS
;	COMDAT ??_C@_04CEJDCDCH@test?$AA@
CONST	SEGMENT
??_C@_04CEJDCDCH@test?$AA@ DB 'test', 00H		; `string'
CONST	ENDS
;	COMDAT ??_C@_07GGFEMFBK@gettemp?$AA@
CONST	SEGMENT
??_C@_07GGFEMFBK@gettemp?$AA@ DB 'gettemp', 00H		; `string'
CONST	ENDS
;	COMDAT ??_C@_0BE@FHOKBDLP@Read?5RTD?5on?5the?5HDI?$AA@
CONST	SEGMENT
??_C@_0BE@FHOKBDLP@Read?5RTD?5on?5the?5HDI?$AA@ DB 'Read RTD on the HDI', 00H ; `string'
CONST	ENDS
;	COMDAT ??_C@_04EGDIKCJN@lldr?$AA@
CONST	SEGMENT
??_C@_04EGDIKCJN@lldr?$AA@ DB 'lldr', 00H		; `string'
CONST	ENDS
;	COMDAT ??_C@_09HHDKDAJO@?$DMaddress?$DO?$AA@
CONST	SEGMENT
??_C@_09HHDKDAJO@?$DMaddress?$DO?$AA@ DB '<address>', 00H ; `string'
CONST	ENDS
;	COMDAT ??_C@_08JLNOPKPP@lld?5read?$AA@
CONST	SEGMENT
??_C@_08JLNOPKPP@lld?5read?$AA@ DB 'lld read', 00H	; `string'
CONST	ENDS
;	COMDAT ??_C@_04DLEPFGNI@lldw?$AA@
CONST	SEGMENT
??_C@_04DLEPFGNI@lldw?$AA@ DB 'lldw', 00H		; `string'
CONST	ENDS
;	COMDAT ??_C@_09GOIMPPCL@lld?5write?$AA@
CONST	SEGMENT
??_C@_09GOIMPPCL@lld?5write?$AA@ DB 'lld write', 00H	; `string'
CONST	ENDS
;	COMDAT ??_C@_04LFLEPBN@mask?$AA@
CONST	SEGMENT
??_C@_04LFLEPBN@mask?$AA@ DB 'mask', 00H		; `string'
CONST	ENDS
;	COMDAT ??_C@_0BI@ONJKCAI@mask?5all?5pixel?5and?5cols?$AA@
CONST	SEGMENT
??_C@_0BI@ONJKCAI@mask?5all?5pixel?5and?5cols?$AA@ DB 'mask all pixel and'
	DB	' cols', 00H					; `string'
CONST	ENDS
;	COMDAT ??_C@_04CEIJAJPO@cald?$AA@
CONST	SEGMENT
??_C@_04CEIJAJPO@cald?$AA@ DB 'cald', 00H		; `string'
CONST	ENDS
;	COMDAT ??_C@_0BA@HHJEFHFL@clear?5calibrate?$AA@
CONST	SEGMENT
??_C@_0BA@HHJEFHFL@clear?5calibrate?$AA@ DB 'clear calibrate', 00H ; `string'
CONST	ENDS
;	COMDAT ??_C@_04CBAKINGI@cals?$AA@
CONST	SEGMENT
??_C@_04CBAKINGI@cals?$AA@ DB 'cals', 00H		; `string'
CONST	ENDS
;	COMDAT ??_C@_0BH@DKBICDFN@sensor?5calibrate?5pixel?$AA@
CONST	SEGMENT
??_C@_0BH@DKBICDFN@sensor?5calibrate?5pixel?$AA@ DB 'sensor calibrate pix'
	DB	'el', 00H					; `string'
CONST	ENDS
;	COMDAT ??_C@_03HHHFPNLC@cal?$AA@
CONST	SEGMENT
??_C@_03HHHFPNLC@cal?$AA@ DB 'cal', 00H			; `string'
CONST	ENDS
;	COMDAT ??_C@_0BA@MHGCBDPJ@calibrate?5pixel?$AA@
CONST	SEGMENT
??_C@_0BA@MHGCBDPJ@calibrate?5pixel?$AA@ DB 'calibrate pixel', 00H ; `string'
CONST	ENDS
;	COMDAT ??_C@_04NNFCMHOP@pixd?$AA@
CONST	SEGMENT
??_C@_04NNFCMHOP@pixd?$AA@ DB 'pixd', 00H		; `string'
CONST	ENDS
;	COMDAT ??_C@_0BA@GCPGDBDH@?$DMrange?$DO?5?$DMrange?$DO?$AA@
CONST	SEGMENT
??_C@_0BA@GCPGDBDH@?$DMrange?$DO?5?$DMrange?$DO?$AA@ DB '<range> <range>', 00H ; `string'
CONST	ENDS
;	COMDAT ??_C@_0L@IOAODDOD@kill?5pixel?$AA@
CONST	SEGMENT
??_C@_0L@IOAODDOD@kill?5pixel?$AA@ DB 'kill pixel', 00H	; `string'
CONST	ENDS
;	COMDAT ??_C@_04MEEJPGKO@pixe?$AA@
CONST	SEGMENT
??_C@_04MEEJPGKO@pixe?$AA@ DB 'pixe', 00H		; `string'
CONST	ENDS
;	COMDAT ??_C@_0BI@LCFMAPIA@?$DMrange?$DO?5?$DMrange?$DO?5?$DMvalue?$DO?$AA@
CONST	SEGMENT
??_C@_0BI@LCFMAPIA@?$DMrange?$DO?5?$DMrange?$DO?5?$DMvalue?$DO?$AA@ DB '<'
	DB	'range> <range> <value>', 00H		; `string'
CONST	ENDS
;	COMDAT ??_C@_0L@OKHDDMCA@trim?5pixel?$AA@
CONST	SEGMENT
??_C@_0L@OKHDDMCA@trim?5pixel?$AA@ DB 'trim pixel', 00H	; `string'
CONST	ENDS
;	COMDAT ??_C@_04MEFGHOMN@cold?$AA@
CONST	SEGMENT
??_C@_04MEFGHOMN@cold?$AA@ DB 'cold', 00H		; `string'
CONST	ENDS
;	COMDAT ??_C@_0BA@EGACNBJH@disable?5columns?$AA@
CONST	SEGMENT
??_C@_0BA@EGACNBJH@disable?5columns?$AA@ DB 'disable columns', 00H ; `string'
CONST	ENDS
;	COMDAT ??_C@_04NNENEPIM@cole?$AA@
CONST	SEGMENT
??_C@_04NNENEPIM@cole?$AA@ DB 'cole', 00H		; `string'
CONST	ENDS
;	COMDAT ??_C@_07HPMKGPHJ@?$DMrange?$DO?$AA@
CONST	SEGMENT
??_C@_07HPMKGPHJ@?$DMrange?$DO?$AA@ DB '<range>', 00H	; `string'
CONST	ENDS
;	COMDAT ??_C@_0O@LFJHMDAA@enable?5column?$AA@
CONST	SEGMENT
??_C@_0O@LFJHMDAA@enable?5column?$AA@ DB 'enable column', 00H ; `string'
CONST	ENDS
;	COMDAT ??_C@_03GNJIJMCJ@ctl?$AA@
CONST	SEGMENT
??_C@_03GNJIJMCJ@ctl?$AA@ DB 'ctl', 00H			; `string'
CONST	ENDS
;	COMDAT ??_C@_0BF@FFGPJKMM@set?5control?5register?$AA@
CONST	SEGMENT
??_C@_0BF@FFGPJKMM@set?5control?5register?$AA@ DB 'set control register', 00H ; `string'
CONST	ENDS
;	COMDAT ??_C@_03CNNAJPOM@wbc?$AA@
CONST	SEGMENT
??_C@_03CNNAJPOM@wbc?$AA@ DB 'wbc', 00H			; `string'
CONST	ENDS
;	COMDAT ??_C@_07MOGOMHAH@set?5WBC?$AA@
CONST	SEGMENT
??_C@_07MOGOMHAH@set?5WBC?$AA@ DB 'set WBC', 00H	; `string'
CONST	ENDS
;	COMDAT ??_C@_04OGIBMANM@vcal?$AA@
CONST	SEGMENT
??_C@_04OGIBMANM@vcal?$AA@ DB 'vcal', 00H		; `string'
CONST	ENDS
;	COMDAT ??_C@_08EJMFKMKK@set?5Vcal?$AA@
CONST	SEGMENT
??_C@_08EJMFKMKK@set?5Vcal?$AA@ DB 'set Vcal', 00H	; `string'
CONST	ENDS
;	COMDAT ??_C@_04PANPKLKK@vthr?$AA@
CONST	SEGMENT
??_C@_04PANPKLKK@vthr?$AA@ DB 'vthr', 00H		; `string'
CONST	ENDS
;	COMDAT ??_C@_0N@ICCFHNBJ@set?5VthrComp?$AA@
CONST	SEGMENT
??_C@_0N@ICCFHNBJ@set?5VthrComp?$AA@ DB 'set VthrComp', 00H ; `string'
CONST	ENDS
;	COMDAT ??_C@_05MJHHHLNN@vtrim?$AA@
CONST	SEGMENT
??_C@_05MJHHHLNN@vtrim?$AA@ DB 'vtrim', 00H		; `string'
CONST	ENDS
;	COMDAT ??_C@_09HALOOLLI@set?5Vtrim?$AA@
CONST	SEGMENT
??_C@_09HALOOLLI@set?5Vtrim?$AA@ DB 'set Vtrim', 00H	; `string'
CONST	ENDS
;	COMDAT ??_C@_04PCHKDBCH@vana?$AA@
CONST	SEGMENT
??_C@_04PCHKDBCH@vana?$AA@ DB 'vana', 00H		; `string'
CONST	ENDS
;	COMDAT ??_C@_08FNDOFNFB@set?5Vana?$AA@
CONST	SEGMENT
??_C@_08FNDOFNFB@set?5Vana?$AA@ DB 'set Vana', 00H	; `string'
CONST	ENDS
;	COMDAT ??_C@_03GNDKNJME@dac?$AA@
CONST	SEGMENT
??_C@_03GNDKNJME@dac?$AA@ DB 'dac', 00H			; `string'
CONST	ENDS
;	COMDAT ??_C@_0BC@GPADDOKO@?$DMaddress?$DO?5?$DMvalue?$DO?$AA@
CONST	SEGMENT
??_C@_0BC@GPADDOKO@?$DMaddress?$DO?5?$DMvalue?$DO?$AA@ DB '<address> <val'
	DB	'ue>', 00H					; `string'
CONST	ENDS
;	COMDAT ??_C@_07IOIEIBCP@set?5DAC?$AA@
CONST	SEGMENT
??_C@_07IOIEIBCP@set?5DAC?$AA@ DB 'set DAC', 00H	; `string'
CONST	ENDS
;	COMDAT ??_C@_06LGNCCACI@select?$AA@
CONST	SEGMENT
??_C@_06LGNCCACI@select?$AA@ DB 'select', 00H		; `string'
CONST	ENDS
;	COMDAT ??_C@_0N@PGOIAMKG@?$DMaddr?5range?$DO?$AA@
CONST	SEGMENT
??_C@_0N@PGOIAMKG@?$DMaddr?5range?$DO?$AA@ DB '<addr range>', 00H ; `string'
CONST	ENDS
;	COMDAT ??_C@_0BA@IEKAGLCL@set?5i2c?5address?$AA@
CONST	SEGMENT
??_C@_0BA@IEKAGLCL@set?5i2c?5address?$AA@ DB 'set i2c address', 00H ; `string'
CONST	ENDS
;	COMDAT ??_C@_03BCNGPMIN@roc?$AA@
CONST	SEGMENT
??_C@_03BCNGPMIN@roc?$AA@ DB 'roc', 00H			; `string'
CONST	ENDS
;	COMDAT ??_C@_06CCOPHDFP@tbmset?$AA@
CONST	SEGMENT
??_C@_06CCOPHDFP@tbmset?$AA@ DB 'tbmset', 00H		; `string'
CONST	ENDS
;	COMDAT ??_C@_0O@NJJCJFGN@?$DMreg?$DO?5?$DMvalue?$DO?$AA@
CONST	SEGMENT
??_C@_0O@NJJCJFGN@?$DMreg?$DO?5?$DMvalue?$DO?$AA@ DB '<reg> <value>', 00H ; `string'
CONST	ENDS
;	COMDAT ??_C@_0BB@GKAGPJJN@set?5TBM?5register?$AA@
CONST	SEGMENT
??_C@_0BB@GKAGPJJN@set?5TBM?5register?$AA@ DB 'set TBM register', 00H ; `string'
CONST	ENDS
;	COMDAT ??_C@_06ODDMEDLE@modsel?$AA@
CONST	SEGMENT
??_C@_06ODDMEDLE@modsel?$AA@ DB 'modsel', 00H		; `string'
CONST	ENDS
;	COMDAT ??_C@_05MCLAPBJL@?$DMhub?$DO?$AA@
CONST	SEGMENT
??_C@_05MCLAPBJL@?$DMhub?$DO?$AA@ DB '<hub>', 00H	; `string'
CONST	ENDS
;	COMDAT ??_C@_0BL@MJBJGHEB@set?5hub?5address?5for?5module?$AA@
CONST	SEGMENT
??_C@_0BL@MJBJGHEB@set?5hub?5address?5for?5module?$AA@ DB 'set hub addres'
	DB	's for module', 00H				; `string'
CONST	ENDS
;	COMDAT ??_C@_06KAPEOLAG@tbmsel?$AA@
CONST	SEGMENT
??_C@_06KAPEOLAG@tbmsel?$AA@ DB 'tbmsel', 00H		; `string'
CONST	ENDS
;	COMDAT ??_C@_0N@KKHMDFCI@?$DMhub?$DO?5?$DMport?$DO?$AA@
CONST	SEGMENT
??_C@_0N@KKHMDFCI@?$DMhub?$DO?5?$DMport?$DO?$AA@ DB '<hub> <port>', 00H ; `string'
CONST	ENDS
;	COMDAT ??_C@_0BJ@NAIIJFGE@set?5hub?5and?5port?5address?$AA@
CONST	SEGMENT
??_C@_0BJ@NAIIJFGE@set?5hub?5and?5port?5address?$AA@ DB 'set hub and port'
	DB	' address', 00H				; `string'
CONST	ENDS
;	COMDAT ??_C@_06KJHKHDNK@tbmdis?$AA@
CONST	SEGMENT
??_C@_06KJHKHDNK@tbmdis?$AA@ DB 'tbmdis', 00H		; `string'
CONST	ENDS
;	COMDAT ??_C@_0M@OHAHKNIP@disable?5TBM?$AA@
CONST	SEGMENT
??_C@_0M@OHAHKNIP@disable?5TBM?$AA@ DB 'disable TBM', 00H ; `string'
CONST	ENDS
;	COMDAT ??_C@_07LLPNMCC@dseloff?$AA@
CONST	SEGMENT
??_C@_07LLPNMCC@dseloff?$AA@ DB 'dseloff', 00H		; `string'
CONST	ENDS
;	COMDAT ??_C@_0N@BMFBIFCG@deselect?5all?$AA@
CONST	SEGMENT
??_C@_0N@BMFBIFCG@deselect?5all?$AA@ DB 'deselect all', 00H ; `string'
CONST	ENDS
;	COMDAT ??_C@_07PJNIKKPD@dselsim?$AA@
CONST	SEGMENT
??_C@_07PJNIKKPD@dselsim?$AA@ DB 'dselsim', 00H		; `string'
CONST	ENDS
;	COMDAT ??_C@_0N@PLOHGFBB@?$DMstartvalue?$DO?$AA@
CONST	SEGMENT
??_C@_0N@PLOHGFBB@?$DMstartvalue?$DO?$AA@ DB '<startvalue>', 00H ; `string'
CONST	ENDS
;	COMDAT ??_C@_0CE@DIIPMIIG@select?5data?5generator?5for?5channe@
CONST	SEGMENT
??_C@_0CE@DIIPMIIG@select?5data?5generator?5for?5channe@ DB 'select data '
	DB	'generator for channel 0', 00H		; `string'
CONST	ENDS
;	COMDAT ??_C@_08EKDOHKIM@dselroca?$AA@
CONST	SEGMENT
??_C@_08EKDOHKIM@dselroca?$AA@ DB 'dselroca', 00H	; `string'
CONST	ENDS
;	COMDAT ??_C@_0BJ@JNNDCAIH@select?5adc?5for?5channel?50?$AA@
CONST	SEGMENT
??_C@_0BJ@JNNDCAIH@select?5adc?5for?5channel?50?$AA@ DB 'select adc for c'
	DB	'hannel 0', 00H				; `string'
CONST	ENDS
;	COMDAT ??_C@_07NLGKJMKK@dselroc?$AA@
CONST	SEGMENT
??_C@_07NLGKJMKK@dselroc?$AA@ DB 'dselroc', 00H		; `string'
CONST	ENDS
;	COMDAT ??_C@_07LFFIHBO@?$DMvalue?$DO?$AA@
CONST	SEGMENT
??_C@_07LFFIHBO@?$DMvalue?$DO?$AA@ DB '<value>', 00H	; `string'
CONST	ENDS
;	COMDAT ??_C@_0CC@JLNMCDEL@select?5deser160?5for?5DAQ?5channel?5@
CONST	SEGMENT
??_C@_0CC@JLNMCDEL@select?5deser160?5for?5DAQ?5channel?5@ DB 'select dese'
	DB	'r160 for DAQ channel 0', 00H		; `string'
CONST	ENDS
;	COMDAT ??_C@_07DKDFIEBJ@dmodres?$AA@
CONST	SEGMENT
??_C@_07DKDFIEBJ@dmodres?$AA@ DB 'dmodres', 00H		; `string'
CONST	ENDS
;	COMDAT ??_C@_0BD@OPCLDKPO@reset?5all?5deser400?$AA@
CONST	SEGMENT
??_C@_0BD@OPCLDKPO@reset?5all?5deser400?$AA@ DB 'reset all deser400', 00H ; `string'
CONST	ENDS
;	COMDAT ??_C@_07JMFBENKE@dselmod?$AA@
CONST	SEGMENT
??_C@_07JMFBENKE@dselmod?$AA@ DB 'dselmod', 00H		; `string'
CONST	ENDS
;	COMDAT ??_C@_0CC@CGGINBEN@select?5deser400?5for?5DAQ?5channel?5@
CONST	SEGMENT
??_C@_0CC@CGGINBEN@select?5deser400?5for?5DAQ?5channel?5@ DB 'select dese'
	DB	'r400 for DAQ channel 0', 00H		; `string'
CONST	ENDS
;	COMDAT ??_C@_06LKPALFPM@dreada?$AA@
CONST	SEGMENT
??_C@_06LKPALFPM@dreada?$AA@ DB 'dreada', 00H		; `string'
CONST	ENDS
;	COMDAT ??_C@_06BGEFPKPA@dreadm?$AA@
CONST	SEGMENT
??_C@_06BGEFPKPA@dreadm?$AA@ DB 'dreadm', 00H		; `string'
CONST	ENDS
;	COMDAT ??_C@_0CI@NKIAILEF@Read?5Daq?5buffer?5and?5show?5as?5modu@
CONST	SEGMENT
??_C@_0CI@NKIAILEF@Read?5Daq?5buffer?5and?5show?5as?5modu@ DB 'Read Daq b'
	DB	'uffer and show as module data', 00H		; `string'
CONST	ENDS
;	COMDAT ??_C@_06NLBPPEGO@dreadr?$AA@
CONST	SEGMENT
??_C@_06NLBPPEGO@dreadr?$AA@ DB 'dreadr', 00H		; `string'
CONST	ENDS
;	COMDAT ??_C@_0CF@NCOLGGEJ@Read?5Daq?5buffer?5and?5show?5as?5ROC?5@
CONST	SEGMENT
??_C@_0CF@NCOLGGEJ@Read?5Daq?5buffer?5and?5show?5as?5ROC?5@ DB 'Read Daq '
	DB	'buffer and show as ROC data', 00H		; `string'
CONST	ENDS
;	COMDAT ??_C@_05BKDGKIDK@dread?$AA@
CONST	SEGMENT
??_C@_05BKDGKIDK@dread?$AA@ DB 'dread', 00H		; `string'
CONST	ENDS
;	COMDAT ??_C@_0CF@OAMKBFMP@Read?5Daq?5buffer?5and?5show?5as?5raw?5@
CONST	SEGMENT
??_C@_0CF@OAMKBFMP@Read?5Daq?5buffer?5and?5show?5as?5raw?5@ DB 'Read Daq '
	DB	'buffer and show as raw data', 00H		; `string'
CONST	ENDS
;	COMDAT ??_C@_05GEOIEDOC@dsize?$AA@
CONST	SEGMENT
??_C@_05GEOIEDOC@dsize?$AA@ DB 'dsize', 00H		; `string'
CONST	ENDS
;	COMDAT ??_C@_0BL@DOOKMEFD@Show?5DAQ?5buffer?5fill?5state?$AA@
CONST	SEGMENT
??_C@_0BL@DOOKMEFD@Show?5DAQ?5buffer?5fill?5state?$AA@ DB 'Show DAQ buffe'
	DB	'r fill state', 00H				; `string'
CONST	ENDS
;	COMDAT ??_C@_05OLMDELCP@dstop?$AA@
CONST	SEGMENT
??_C@_05OLMDELCP@dstop?$AA@ DB 'dstop', 00H		; `string'
CONST	ENDS
;	COMDAT ??_C@_0M@ELBOMCOM@Disable?5DAQ?$AA@
CONST	SEGMENT
??_C@_0M@ELBOMCOM@Disable?5DAQ?$AA@ DB 'Disable DAQ', 00H ; `string'
CONST	ENDS
;	COMDAT ??_C@_06DDCOBLN@dstart?$AA@
CONST	SEGMENT
??_C@_06DDCOBLN@dstart?$AA@ DB 'dstart', 00H		; `string'
CONST	ENDS
;	COMDAT ??_C@_0L@DGPPCOKI@Enable?5DAQ?$AA@
CONST	SEGMENT
??_C@_0L@DGPPCOKI@Enable?5DAQ?$AA@ DB 'Enable DAQ', 00H	; `string'
CONST	ENDS
;	COMDAT ??_C@_06OCLAABHB@dclose?$AA@
CONST	SEGMENT
??_C@_06OCLAABHB@dclose?$AA@ DB 'dclose', 00H		; `string'
CONST	ENDS
;	COMDAT ??_C@_0M@MCCMCADE@?$FL?$DMchannel?$DO?$FN?$AA@
CONST	SEGMENT
??_C@_0M@MCCMCADE@?$FL?$DMchannel?$DO?$FN?$AA@ DB '[<channel>]', 00H ; `string'
CONST	ENDS
;	COMDAT ??_C@_09FIJCNEFO@Close?5DAQ?$AA@
CONST	SEGMENT
??_C@_09FIJCNEFO@Close?5DAQ?$AA@ DB 'Close DAQ', 00H	; `string'
CONST	ENDS
;	COMDAT ??_C@_05BIGHBMPC@dopen?$AA@
CONST	SEGMENT
??_C@_05BIGHBMPC@dopen?$AA@ DB 'dopen', 00H		; `string'
CONST	ENDS
;	COMDAT ??_C@_0BF@DOBLMENI@?$DMbuffer?5size?$DO?5?$FL?$DMch?$DO?$FN?$AA@
CONST	SEGMENT
??_C@_0BF@DOBLMENI@?$DMbuffer?5size?$DO?5?$FL?$DMch?$DO?$FN?$AA@ DB '<buf'
	DB	'fer size> [<ch>]', 00H			; `string'
CONST	ENDS
;	COMDAT ??_C@_0BN@IDMOMANB@Open?5DAQ?5and?5allocate?5memory?$AA@
CONST	SEGMENT
??_C@_0BN@IDMOMANB@Open?5DAQ?5and?5allocate?5memory?$AA@ DB 'Open DAQ and'
	DB	' allocate memory', 00H			; `string'
CONST	ENDS
;	COMDAT ??_C@_03BFMOKJBH@daq?$AA@
CONST	SEGMENT
??_C@_03BFMOKJBH@daq?$AA@ DB 'daq', 00H			; `string'
CONST	ENDS
;	COMDAT ??_C@_06MIDJEHLK@pgloop?$AA@
CONST	SEGMENT
??_C@_06MIDJEHLK@pgloop?$AA@ DB 'pgloop', 00H		; `string'
CONST	ENDS
;	COMDAT ??_C@_08BLLLAMGH@?$DMperiod?$DO?$AA@
CONST	SEGMENT
??_C@_08BLLLAMGH@?$DMperiod?$DO?$AA@ DB '<period>', 00H	; `string'
CONST	ENDS
;	COMDAT ??_C@_0CE@LONLJPPI@start?5patterngenerator?5in?5loop?5m@
CONST	SEGMENT
??_C@_0CE@LONLJPPI@start?5patterngenerator?5in?5loop?5m@ DB 'start patter'
	DB	'ngenerator in loop mode', 00H		; `string'
CONST	ENDS
;	COMDAT ??_C@_06DLNEOMJP@pgtrig?$AA@
CONST	SEGMENT
??_C@_06DLNEOMJP@pgtrig?$AA@ DB 'pgtrig', 00H		; `string'
CONST	ENDS
;	COMDAT ??_C@_0CA@PFODKJBB@enable?5external?5pattern?5trigger?$AA@
CONST	SEGMENT
??_C@_0CA@PFODKJBB@enable?5external?5pattern?5trigger?$AA@ DB 'enable ext'
	DB	'ernal pattern trigger', 00H			; `string'
CONST	ENDS
;	COMDAT ??_C@_08BILELODC@pgsingle?$AA@
CONST	SEGMENT
??_C@_08BILELODC@pgsingle?$AA@ DB 'pgsingle', 00H	; `string'
CONST	ENDS
;	COMDAT ??_C@_0BE@ODHEEMOB@send?5single?5pattern?$AA@
CONST	SEGMENT
??_C@_0BE@ODHEEMOB@send?5single?5pattern?$AA@ DB 'send single pattern', 00H ; `string'
CONST	ENDS
;	COMDAT ??_C@_06KNJBJHHH@pgstop?$AA@
CONST	SEGMENT
??_C@_06KNJBJHHH@pgstop?$AA@ DB 'pgstop', 00H		; `string'
CONST	ENDS
;	COMDAT ??_C@_0BI@BLBLGOLH@stops?5pattern?5generator?$AA@
CONST	SEGMENT
??_C@_0BI@BLBLGOLH@stops?5pattern?5generator?$AA@ DB 'stops pattern gener'
	DB	'ator', 00H					; `string'
CONST	ENDS
;	COMDAT ??_C@_05BCMIECIL@pgset?$AA@
CONST	SEGMENT
??_C@_05BCMIECIL@pgset?$AA@ DB 'pgset', 00H		; `string'
CONST	ENDS
;	COMDAT ??_C@_0BG@MGCIEMOE@?$DMaddr?$DO?5?$DMbits?$DO?5?$DMdelay?$DO?$AA@
CONST	SEGMENT
??_C@_0BG@MGCIEMOE@?$DMaddr?$DO?5?$DMbits?$DO?5?$DMdelay?$DO?$AA@ DB '<ad'
	DB	'dr> <bits> <delay>', 00H			; `string'
CONST	ENDS
;	COMDAT ??_C@_0BM@OPHPCPIF@set?5pattern?5generator?5entry?$AA@
CONST	SEGMENT
??_C@_0BM@OPHPCPIF@set?5pattern?5generator?5entry?$AA@ DB 'set pattern ge'
	DB	'nerator entry', 00H				; `string'
CONST	ENDS
;	COMDAT ??_C@_08OMKEBPPH@probeadc?$AA@
CONST	SEGMENT
??_C@_08OMKEBPPH@probeadc?$AA@ DB 'probeadc', 00H	; `string'
CONST	ENDS
;	COMDAT ??_C@_0BM@CLGOGNIP@assign?5analog?5signal?5to?5ADC?$AA@
CONST	SEGMENT
??_C@_0BM@CLGOGNIP@assign?5analog?5signal?5to?5ADC?$AA@ DB 'assign analog'
	DB	' signal to ADC', 00H			; `string'
CONST	ENDS
;	COMDAT ??_C@_02KENLNDIL@a2?$AA@
CONST	SEGMENT
??_C@_02KENLNDIL@a2?$AA@ DB 'a2', 00H			; `string'
CONST	ENDS
;	COMDAT ??_C@_0CC@OMBHDGKK@assign?5analog?5signal?5to?5A2?5outou@
CONST	SEGMENT
??_C@_0CC@OMBHDGKK@assign?5analog?5signal?5to?5A2?5outou@ DB 'assign anal'
	DB	'og signal to A2 outout', 00H		; `string'
CONST	ENDS
;	COMDAT ??_C@_02IPPGIAEI@a1?$AA@
CONST	SEGMENT
??_C@_02IPPGIAEI@a1?$AA@ DB 'a1', 00H			; `string'
CONST	ENDS
;	COMDAT ??_C@_0CC@NNOAENKG@assign?5analog?5signal?5to?5A1?5outpu@
CONST	SEGMENT
??_C@_0CC@NNOAENKG@assign?5analog?5signal?5to?5A1?5outpu@ DB 'assign anal'
	DB	'og signal to A1 output', 00H		; `string'
CONST	ENDS
;	COMDAT ??_C@_02KCBABBGA@d2?$AA@
CONST	SEGMENT
??_C@_02KCBABBGA@d2?$AA@ DB 'd2', 00H			; `string'
CONST	ENDS
;	COMDAT ??_C@_0BL@CADBPCML@assign?5signal?5to?5D2?5outout?$AA@
CONST	SEGMENT
??_C@_0BL@CADBPCML@assign?5signal?5to?5D2?5outout?$AA@ DB 'assign signal '
	DB	'to D2 outout', 00H				; `string'
CONST	ENDS
;	COMDAT ??_C@_02IJDNECKD@d1?$AA@
CONST	SEGMENT
??_C@_02IJDNECKD@d1?$AA@ DB 'd1', 00H			; `string'
CONST	ENDS
;	COMDAT ??_C@_08FNGDAIED@?$DMsignal?$DO?$AA@
CONST	SEGMENT
??_C@_08FNGDAIED@?$DMsignal?$DO?$AA@ DB '<signal>', 00H	; `string'
CONST	ENDS
;	COMDAT ??_C@_0BL@BBMGIJMH@assign?5signal?5to?5D1?5output?$AA@
CONST	SEGMENT
??_C@_0BL@BBMGIJMH@assign?5signal?5to?5D1?5output?$AA@ DB 'assign signal '
	DB	'to D1 output', 00H				; `string'
CONST	ENDS
;	COMDAT ??_C@_07MFPHLBKC@rocaddr?$AA@
CONST	SEGMENT
??_C@_07MFPHLBKC@rocaddr?$AA@ DB 'rocaddr', 00H		; `string'
CONST	ENDS
;	COMDAT ??_C@_0BA@JLPAOFAF@set?5ROC?5address?$AA@
CONST	SEGMENT
??_C@_0BA@JLPAOFAF@set?5ROC?5address?$AA@ DB 'set ROC address', 00H ; `string'
CONST	ENDS
;	COMDAT ??_C@_06DJIHEMFI@status?$AA@
CONST	SEGMENT
??_C@_06DJIHEMFI@status?$AA@ DB 'status', 00H		; `string'
CONST	ENDS
;	COMDAT ??_C@_0BH@MFDFAINF@shows?5testboard?5status?$AA@
CONST	SEGMENT
??_C@_0BH@MFDFAINF@shows?5testboard?5status?$AA@ DB 'shows testboard stat'
	DB	'us', 00H					; `string'
CONST	ENDS
;	COMDAT ??_C@_06ODJHHJJD@resoff?$AA@
CONST	SEGMENT
??_C@_06ODJHHJJD@resoff?$AA@ DB 'resoff', 00H		; `string'
CONST	ENDS
;	COMDAT ??_C@_0BB@IJMEGLI@deactivate?5reset?$AA@
CONST	SEGMENT
??_C@_0BB@IJMEGLI@deactivate?5reset?$AA@ DB 'deactivate reset', 00H ; `string'
CONST	ENDS
;	COMDAT ??_C@_05JIHKMPON@reson?$AA@
CONST	SEGMENT
??_C@_05JIHKMPON@reson?$AA@ DB 'reson', 00H		; `string'
CONST	ENDS
;	COMDAT ??_C@_0P@FFFFJELC@activate?5reset?$AA@
CONST	SEGMENT
??_C@_0P@FFFFJELC@activate?5reset?$AA@ DB 'activate reset', 00H ; `string'
CONST	ENDS
;	COMDAT ??_C@_05MALAFKOC@hvoff?$AA@
CONST	SEGMENT
??_C@_05MALAFKOC@hvoff?$AA@ DB 'hvoff', 00H		; `string'
CONST	ENDS
;	COMDAT ??_C@_0O@NAJKIABN@switch?5HV?5off?$AA@
CONST	SEGMENT
??_C@_0O@NAJKIABN@switch?5HV?5off?$AA@ DB 'switch HV off', 00H ; `string'
CONST	ENDS
;	COMDAT ??_C@_04GGDOABBK@hvon?$AA@
CONST	SEGMENT
??_C@_04GGDOABBK@hvon?$AA@ DB 'hvon', 00H		; `string'
CONST	ENDS
;	COMDAT ??_C@_0N@JGJOKEIA@switch?5HV?5on?$AA@
CONST	SEGMENT
??_C@_0N@JGJOKEIA@switch?5HV?5on?$AA@ DB 'switch HV on', 00H ; `string'
CONST	ENDS
;	COMDAT ??_C@_05KINEPAEE@getid?$AA@
CONST	SEGMENT
??_C@_05KINEPAEE@getid?$AA@ DB 'getid', 00H		; `string'
CONST	ENDS
;	COMDAT ??_C@_0N@CCKBACKC@get?5ID?5in?5mA?$AA@
CONST	SEGMENT
??_C@_0N@CCKBACKC@get?5ID?5in?5mA?$AA@ DB 'get ID in mA', 00H ; `string'
CONST	ENDS
;	COMDAT ??_C@_05NFKDAEAB@getia?$AA@
CONST	SEGMENT
??_C@_05NFKDAEAB@getia?$AA@ DB 'getia', 00H		; `string'
CONST	ENDS
;	COMDAT ??_C@_0N@GKEBAMMG@get?5IA?5in?5mA?$AA@
CONST	SEGMENT
??_C@_0N@GKEBAMMG@get?5IA?5in?5mA?$AA@ DB 'get IA in mA', 00H ; `string'
CONST	ENDS
;	COMDAT ??_C@_05LPKOBEAJ@getvd?$AA@
CONST	SEGMENT
??_C@_05LPKOBEAJ@getvd?$AA@ DB 'getvd', 00H		; `string'
CONST	ENDS
;	COMDAT ??_C@_0M@DLOGKGAP@get?5VD?5in?5V?$AA@
CONST	SEGMENT
??_C@_0M@DLOGKGAP@get?5VD?5in?5V?$AA@ DB 'get VD in V', 00H ; `string'
CONST	ENDS
;	COMDAT ??_C@_05MCNJOAEM@getva?$AA@
CONST	SEGMENT
??_C@_05MCNJOAEM@getva?$AA@ DB 'getva', 00H		; `string'
CONST	ENDS
;	COMDAT ??_C@_0M@GJNOIJKI@get?5VA?5in?5V?$AA@
CONST	SEGMENT
??_C@_0M@GJNOIJKI@get?5VA?5in?5V?$AA@ DB 'get VA in V', 00H ; `string'
CONST	ENDS
;	COMDAT ??_C@_02EGCJHIOB@id?$AA@
CONST	SEGMENT
??_C@_02EGCJHIOB@id?$AA@ DB 'id', 00H			; `string'
CONST	ENDS
;	COMDAT ??_C@_0N@FGBPMOOO@set?5ID?5in?5mA?$AA@
CONST	SEGMENT
??_C@_0N@FGBPMOOO@set?5ID?5in?5mA?$AA@ DB 'set ID in mA', 00H ; `string'
CONST	ENDS
;	COMDAT ??_C@_02DLFOIMKE@ia?$AA@
CONST	SEGMENT
??_C@_02DLFOIMKE@ia?$AA@ DB 'ia', 00H			; `string'
CONST	ENDS
;	COMDAT ??_C@_04KENNIODB@?$DMmA?$DO?$AA@
CONST	SEGMENT
??_C@_04KENNIODB@?$DMmA?$DO?$AA@ DB '<mA>', 00H		; `string'
CONST	ENDS
;	COMDAT ??_C@_0N@BOPPMAIK@set?5IA?5in?5mA?$AA@
CONST	SEGMENT
??_C@_0N@BOPPMAIK@set?5IA?5in?5mA?$AA@ DB 'set IA in mA', 00H ; `string'
CONST	ENDS
;	COMDAT ??_C@_02FBFDJMKM@vd?$AA@
CONST	SEGMENT
??_C@_02FBFDJMKM@vd?$AA@ DB 'vd', 00H			; `string'
CONST	ENDS
;	COMDAT ??_C@_0N@CAOFMHNI@set?5VD?5in?5mV?$AA@
CONST	SEGMENT
??_C@_0N@CAOFMHNI@set?5VD?5in?5mV?$AA@ DB 'set VD in mV', 00H ; `string'
CONST	ENDS
;	COMDAT ??_C@_02CMCEGIOJ@va?$AA@
CONST	SEGMENT
??_C@_02CMCEGIOJ@va?$AA@ DB 'va', 00H			; `string'
CONST	ENDS
;	COMDAT ??_C@_04LNLEDLME@?$DMmV?$DO?$AA@
CONST	SEGMENT
??_C@_04LNLEDLME@?$DMmV?$DO?$AA@ DB '<mV>', 00H		; `string'
CONST	ENDS
;	COMDAT ??_C@_0N@GIAFMJLM@set?5VA?5in?5mV?$AA@
CONST	SEGMENT
??_C@_0N@GIAFMJLM@set?5VA?5in?5mV?$AA@ DB 'set VA in mV', 00H ; `string'
CONST	ENDS
;	COMDAT ??_C@_04NMLHHEML@poff?$AA@
CONST	SEGMENT
??_C@_04NMLHHEML@poff?$AA@ DB 'poff', 00H		; `string'
CONST	ENDS
;	COMDAT ??_C@_0BF@FKKLNFPN@switch?5ROC?5power?5off?$AA@
CONST	SEGMENT
??_C@_0BF@FKKLNFPN@switch?5ROC?5power?5off?$AA@ DB 'switch ROC power off', 00H ; `string'
CONST	ENDS
;	COMDAT ??_C@_03NHBEKEL@pon?$AA@
CONST	SEGMENT
??_C@_03NHBEKEL@pon?$AA@ DB 'pon', 00H			; `string'
CONST	ENDS
;	COMDAT ??_C@_0BE@MCACKIJL@switch?5ROC?5power?5on?$AA@
CONST	SEGMENT
??_C@_0BE@MCACKIJL@switch?5ROC?5power?5on?$AA@ DB 'switch ROC power on', 00H ; `string'
CONST	ENDS
;	COMDAT ??_C@_04HEAIDIK@lcds?$AA@
CONST	SEGMENT
??_C@_04HEAIDIK@lcds?$AA@ DB 'lcds', 00H		; `string'
CONST	ENDS
;	COMDAT ??_C@_0M@FBIDJPE@LCDS?5inputs?$AA@
CONST	SEGMENT
??_C@_0M@FBIDJPE@LCDS?5inputs?$AA@ DB 'LCDS inputs', 00H ; `string'
CONST	ENDS
;	COMDAT ??_C@_04GAIHCECH@lvds?$AA@
CONST	SEGMENT
??_C@_04GAIHCECH@lvds?$AA@ DB 'lvds', 00H		; `string'
CONST	ENDS
;	COMDAT ??_C@_0M@NKLJFBHN@LVDS?5inputs?$AA@
CONST	SEGMENT
??_C@_0M@NKLJFBHN@LVDS?5inputs?$AA@ DB 'LVDS inputs', 00H ; `string'
CONST	ENDS
;	COMDAT ??_C@_09OCABNPKC@sigoffset?$AA@
CONST	SEGMENT
??_C@_09OCABNPKC@sigoffset?$AA@ DB 'sigoffset', 00H	; `string'
CONST	ENDS
;	COMDAT ??_C@_08EOEELJMH@?$DMoffset?$DO?$AA@
CONST	SEGMENT
??_C@_08EOEELJMH@?$DMoffset?$DO?$AA@ DB '<offset>', 00H	; `string'
CONST	ENDS
;	COMDAT ??_C@_0BF@MLCJGEOD@output?5signal?5offset?$AA@
CONST	SEGMENT
??_C@_0BF@MLCJGEOD@output?5signal?5offset?$AA@ DB 'output signal offset', 00H ; `string'
CONST	ENDS
;	COMDAT ??_C@_07MLKEHAFH@tinmode?$AA@
CONST	SEGMENT
??_C@_07MLKEHAFH@tinmode?$AA@ DB 'tinmode', 00H		; `string'
CONST	ENDS
;	COMDAT ??_C@_08PCILFICB@tin?5mode?$AA@
CONST	SEGMENT
??_C@_08PCILFICB@tin?5mode?$AA@ DB 'tin mode', 00H	; `string'
CONST	ENDS
;	COMDAT ??_C@_07MPMHHHIL@ctrmode?$AA@
CONST	SEGMENT
??_C@_07MPMHHHIL@ctrmode?$AA@ DB 'ctrmode', 00H		; `string'
CONST	ENDS
;	COMDAT ??_C@_08HNOKKFNJ@ctr?5mode?$AA@
CONST	SEGMENT
??_C@_08HNOKKFNJ@ctr?5mode?$AA@ DB 'ctr mode', 00H	; `string'
CONST	ENDS
;	COMDAT ??_C@_07FBOAKKFL@sdamode?$AA@
CONST	SEGMENT
??_C@_07FBOAKKFL@sdamode?$AA@ DB 'sdamode', 00H		; `string'
CONST	ENDS
;	COMDAT ??_C@_08PLKHFANA@sda?5mode?$AA@
CONST	SEGMENT
??_C@_08PLKHFANA@sda?5mode?$AA@ DB 'sda mode', 00H	; `string'
CONST	ENDS
;	COMDAT ??_C@_07LPCPPGHB@clkmode?$AA@
CONST	SEGMENT
??_C@_07LPCPPGHB@clkmode?$AA@ DB 'clkmode', 00H		; `string'
CONST	ENDS
;	COMDAT ??_C@_06BJMFGBFN@?$DMmode?$DO?$AA@
CONST	SEGMENT
??_C@_06BJMFGBFN@?$DMmode?$DO?$AA@ DB '<mode>', 00H	; `string'
CONST	ENDS
;	COMDAT ??_C@_08CAPCFGFK@clk?5mode?$AA@
CONST	SEGMENT
??_C@_08CAPCFGFK@clk?5mode?$AA@ DB 'clk mode', 00H	; `string'
CONST	ENDS
;	COMDAT ??_C@_06JLIJDLPF@tinlvl?$AA@
CONST	SEGMENT
??_C@_06JLIJDLPF@tinlvl?$AA@ DB 'tinlvl', 00H		; `string'
CONST	ENDS
;	COMDAT ??_C@_0BB@BKFCBNPN@tin?5signel?5level?$AA@
CONST	SEGMENT
??_C@_0BB@BKFCBNPN@tin?5signel?5level?$AA@ DB 'tin signel level', 00H ; `string'
CONST	ENDS
;	COMDAT ??_C@_06CDKIPCHD@ctrlvl?$AA@
CONST	SEGMENT
??_C@_06CDKIPCHD@ctrlvl?$AA@ DB 'ctrlvl', 00H		; `string'
CONST	ENDS
;	COMDAT ??_C@_0BB@MDGLLCKH@ctr?5signel?5level?$AA@
CONST	SEGMENT
??_C@_0BB@MDGLLCKH@ctr?5signel?5level?$AA@ DB 'ctr signel level', 00H ; `string'
CONST	ENDS
;	COMDAT ??_C@_06GAOAIBHE@sdalvl?$AA@
CONST	SEGMENT
??_C@_06GAOAIBHE@sdalvl?$AA@ DB 'sdalvl', 00H		; `string'
CONST	ENDS
;	COMDAT ??_C@_0BB@GHACOAHC@sda?5signel?5level?$AA@
CONST	SEGMENT
??_C@_0BB@GHACOAHC@sda?5signel?5level?$AA@ DB 'sda signel level', 00H ; `string'
CONST	ENDS
;	COMDAT ??_C@_06KBNNIHHG@clklvl?$AA@
CONST	SEGMENT
??_C@_06KBNNIHHG@clklvl?$AA@ DB 'clklvl', 00H		; `string'
CONST	ENDS
;	COMDAT ??_C@_07CGPCOFLL@?$DMlevel?$DO?$AA@
CONST	SEGMENT
??_C@_07CGPCOFLL@?$DMlevel?$DO?$AA@ DB '<level>', 00H	; `string'
CONST	ENDS
;	COMDAT ??_C@_0BB@DJKDMKFK@clk?5signal?5level?$AA@
CONST	SEGMENT
??_C@_0BB@DJKDMKFK@clk?5signal?5level?$AA@ DB 'clk signal level', 00H ; `string'
CONST	ENDS
;	COMDAT ??_C@_03IGJOKBKO@tin?$AA@
CONST	SEGMENT
??_C@_03IGJOKBKO@tin?$AA@ DB 'tin', 00H			; `string'
CONST	ENDS
;	COMDAT ??_C@_09BNGEJAOD@tin?5delay?$AA@
CONST	SEGMENT
??_C@_09BNGEJAOD@tin?5delay?$AA@ DB 'tin delay', 00H	; `string'
CONST	ENDS
;	COMDAT ??_C@_03LJNJKDPG@ctr?$AA@
CONST	SEGMENT
??_C@_03LJNJKDPG@ctr?$AA@ DB 'ctr', 00H			; `string'
CONST	ENDS
;	COMDAT ??_C@_09KOINILDA@ctr?5delay?$AA@
CONST	SEGMENT
??_C@_09KOINILDA@ctr?5delay?$AA@ DB 'ctr delay', 00H	; `string'
CONST	ENDS
;	COMDAT ??_C@_03JEAJBGIL@sda?$AA@
CONST	SEGMENT
??_C@_03JEAJBGIL@sda?$AA@ DB 'sda', 00H			; `string'
CONST	ENDS
;	COMDAT ??_C@_09NHNHHOGB@sda?5delay?$AA@
CONST	SEGMENT
??_C@_09NHNHHOGB@sda?5delay?$AA@ DB 'sda delay', 00H	; `string'
CONST	ENDS
;	COMDAT ??_C@_03DAOMPICG@clk?$AA@
CONST	SEGMENT
??_C@_03DAOMPICG@clk?$AA@ DB 'clk', 00H			; `string'
CONST	ENDS
;	COMDAT ??_C@_07KKMCNCDD@?$DMdelay?$DO?$AA@
CONST	SEGMENT
??_C@_07KKMCNCDD@?$DMdelay?$DO?$AA@ DB '<delay>', 00H	; `string'
CONST	ENDS
;	COMDAT ??_C@_09NKGBEBFJ@clk?5delay?$AA@
CONST	SEGMENT
??_C@_09NKGBEBFJ@clk?5delay?$AA@ DB 'clk delay', 00H	; `string'
CONST	ENDS
;	COMDAT ??_C@_07LEPFLFDH@stretch?$AA@
CONST	SEGMENT
??_C@_07LEPFLFDH@stretch?$AA@ DB 'stretch', 00H		; `string'
CONST	ENDS
;	COMDAT ??_C@_0BG@NCJGPHBE@?$DMsrc?$DO?5?$DMdelay?$DO?5?$DMwidth?$DO?$AA@
CONST	SEGMENT
??_C@_0BG@NCJGPHBE@?$DMsrc?$DO?5?$DMdelay?$DO?5?$DMwidth?$DO?$AA@ DB '<sr'
	DB	'c> <delay> <width>', 00H			; `string'
CONST	ENDS
;	COMDAT ??_C@_0O@HFPOEM@stretch?5clock?$AA@
CONST	SEGMENT
??_C@_0O@HFPOEM@stretch?5clock?$AA@ DB 'stretch clock', 00H ; `string'
CONST	ENDS
;	COMDAT ??_C@_04NBHBKIBN@fsel?$AA@
CONST	SEGMENT
??_C@_04NBHBKIBN@fsel?$AA@ DB 'fsel', 00H		; `string'
CONST	ENDS
;	COMDAT ??_C@_09INGDEAEB@?$DMfreqdiv?$DO?$AA@
CONST	SEGMENT
??_C@_09INGDEAEB@?$DMfreqdiv?$DO?$AA@ DB '<freqdiv>', 00H ; `string'
CONST	ENDS
;	COMDAT ??_C@_0BH@LMKLAOEO@clock?5frequency?5select?$AA@
CONST	SEGMENT
??_C@_0BH@LMKLAOEO@clock?5frequency?5select?$AA@ DB 'clock frequency sele'
	DB	'ct', 00H					; `string'
CONST	ENDS
;	COMDAT ??_C@_05LFDKPHJH@clkok?$AA@
CONST	SEGMENT
??_C@_05LFDKPHJH@clkok?$AA@ DB 'clkok', 00H		; `string'
CONST	ENDS
;	COMDAT ??_C@_0BO@LAJLJCLL@Check?5if?5ext?5clock?5is?5present?$AA@
CONST	SEGMENT
??_C@_0BO@LAJLJCLL@Check?5if?5ext?5clock?5is?5present?$AA@ DB 'Check if e'
	DB	'xt clock is present', 00H			; `string'
CONST	ENDS
;	COMDAT ??_C@_06CJDGHEKM@clksrc?$AA@
CONST	SEGMENT
??_C@_06CJDGHEKM@clksrc?$AA@ DB 'clksrc', 00H		; `string'
CONST	ENDS
;	COMDAT ??_C@_08HAGFBHGO@?$DMsource?$DO?$AA@
CONST	SEGMENT
??_C@_08HAGFBHGO@?$DMsource?$DO?$AA@ DB '<source>', 00H	; `string'
CONST	ENDS
;	COMDAT ??_C@_0BE@DEOPGMAG@Select?5clock?5source?$AA@
CONST	SEGMENT
??_C@_0BE@DEOPGMAG@Select?5clock?5source?$AA@ DB 'Select clock source', 00H ; `string'
CONST	ENDS
;	COMDAT ??_C@_06IMFNJDMG@mdelay?$AA@
CONST	SEGMENT
??_C@_06IMFNJDMG@mdelay?$AA@ DB 'mdelay', 00H		; `string'
CONST	ENDS
;	COMDAT ??_C@_04IDDCLPMP@?$DMms?$DO?$AA@
CONST	SEGMENT
??_C@_04IDDCLPMP@?$DMms?$DO?$AA@ DB '<ms>', 00H		; `string'
CONST	ENDS
;	COMDAT ??_C@_0BI@LBLEFODE@waits?5?$DMms?$DO?5milliseconds?$AA@
CONST	SEGMENT
??_C@_0BI@LBLEFODE@waits?5?$DMms?$DO?5milliseconds?$AA@ DB 'waits <ms> mi'
	DB	'lliseconds', 00H				; `string'
CONST	ENDS
;	COMDAT ??_C@_06NIGMEBGP@udelay?$AA@
CONST	SEGMENT
??_C@_06NIGMEBGP@udelay?$AA@ DB 'udelay', 00H		; `string'
CONST	ENDS
;	COMDAT ??_C@_04BGJPMALP@?$DMus?$DO?$AA@
CONST	SEGMENT
??_C@_04BGJPMALP@?$DMus?$DO?$AA@ DB '<us>', 00H		; `string'
CONST	ENDS
;	COMDAT ??_C@_0BI@JJHALEMA@waits?5?$DMus?$DO?5microseconds?$AA@
CONST	SEGMENT
??_C@_0BI@JJHALEMA@waits?5?$DMus?$DO?5microseconds?$AA@ DB 'waits <us> mi'
	DB	'croseconds', 00H				; `string'
CONST	ENDS
;	COMDAT ??_C@_05LPGCOFJG@init2?$AA@
CONST	SEGMENT
??_C@_05LPGCOFJG@init2?$AA@ DB 'init2', 00H		; `string'
CONST	ENDS
;	COMDAT ??_C@_09CEHFMHEJ@inits?5I2C?$AA@
CONST	SEGMENT
??_C@_09CEHFMHEJ@inits?5I2C?$AA@ DB 'inits I2C', 00H	; `string'
CONST	ENDS
;	COMDAT ??_C@_05MEHLAELG@clear?$AA@
CONST	SEGMENT
??_C@_05MEHLAELG@clear?$AA@ DB 'clear', 00H		; `string'
CONST	ENDS
;	COMDAT ??_C@_0BH@HJAFOACO@clears?5usb?5data?5buffer?$AA@
CONST	SEGMENT
??_C@_0BH@HJAFOACO@clears?5usb?5data?5buffer?$AA@ DB 'clears usb data buf'
	DB	'fer', 00H					; `string'
CONST	ENDS
;	COMDAT ??_C@_05GLCAEPFP@flush?$AA@
CONST	SEGMENT
??_C@_05GLCAEPFP@flush?$AA@ DB 'flush', 00H		; `string'
CONST	ENDS
;	COMDAT ??_C@_0BD@NBODGCAO@flushes?5usb?5buffer?$AA@
CONST	SEGMENT
??_C@_0BD@NBODGCAO@flushes?5usb?5buffer?$AA@ DB 'flushes usb buffer', 00H ; `string'
CONST	ENDS
;	COMDAT ??_C@_04HKFDNBLD@init?$AA@
CONST	SEGMENT
??_C@_04HKFDNBLD@init?$AA@ DB 'init', 00H		; `string'
CONST	ENDS
;	COMDAT ??_C@_0BE@GHKMBLJD@inits?5the?5testboard?$AA@
CONST	SEGMENT
??_C@_0BE@GHKMBLJD@inits?5the?5testboard?$AA@ DB 'inits the testboard', 00H ; `string'
CONST	ENDS
;	COMDAT ??_C@_07MHIEOKFE@boardid?$AA@
CONST	SEGMENT
??_C@_07MHIEOKFE@boardid?$AA@ DB 'boardid', 00H		; `string'
CONST	ENDS
;	COMDAT ??_C@_0N@KIDOIMND@get?5board?5id?$AA@
CONST	SEGMENT
??_C@_0N@KIDOIMND@get?5board?5id?$AA@ DB 'get board id', 00H ; `string'
CONST	ENDS
;	COMDAT ??_C@_07CPCPJPKL@version?$AA@
CONST	SEGMENT
??_C@_07CPCPJPKL@version?$AA@ DB 'version', 00H		; `string'
CONST	ENDS
;	COMDAT ??_C@_0BL@FHEPIIAB@shows?5DTB?5software?5version?$AA@
CONST	SEGMENT
??_C@_0BL@FHEPIIAB@shows?5DTB?5software?5version?$AA@ DB 'shows DTB softw'
	DB	'are version', 00H				; `string'
CONST	ENDS
;	COMDAT ??_C@_03MDPKMNBM@ver?$AA@
CONST	SEGMENT
??_C@_03MDPKMNBM@ver?$AA@ DB 'ver', 00H			; `string'
CONST	ENDS
;	COMDAT ??_C@_0CC@CGFDCNF@shows?5DTB?5software?5version?5numbe@
CONST	SEGMENT
??_C@_0CC@CGFDCNF@shows?5DTB?5software?5version?5numbe@ DB 'shows DTB sof'
	DB	'tware version number', 00H			; `string'
CONST	ENDS
;	COMDAT ??_C@_04NIDJFNBE@info?$AA@
CONST	SEGMENT
??_C@_04NIDJFNBE@info?$AA@ DB 'info', 00H		; `string'
CONST	ENDS
;	COMDAT ??_C@_0BH@HEFMDKIG@show?5detailed?5DTB?5info?$AA@
CONST	SEGMENT
??_C@_0BH@HEFMDKIG@show?5detailed?5DTB?5info?$AA@ DB 'show detailed DTB i'
	DB	'nfo', 00H					; `string'
CONST	ENDS
;	COMDAT ??_C@_07PHEEEOFC@rpcinfo?$AA@
CONST	SEGMENT
??_C@_07PHEEEOFC@rpcinfo?$AA@ DB 'rpcinfo', 00H		; `string'
CONST	ENDS
;	COMDAT ??_C@_0BH@JJAKCEEG@list?5all?5DTB?5functions?$AA@
CONST	SEGMENT
??_C@_0BH@JJAKCEEG@list?5all?5DTB?5functions?$AA@ DB 'list all DTB functi'
	DB	'ons', 00H					; `string'
CONST	ENDS
;	COMDAT ??_C@_07NACIIPHM@upgrade?$AA@
CONST	SEGMENT
??_C@_07NACIIPHM@upgrade?$AA@ DB 'upgrade', 00H		; `string'
CONST	ENDS
;	COMDAT ??_C@_0L@JEMCAPAJ@?$DMfilename?$DO?$AA@
CONST	SEGMENT
??_C@_0L@JEMCAPAJ@?$DMfilename?$DO?$AA@ DB '<filename>', 00H ; `string'
CONST	ENDS
;	COMDAT ??_C@_0M@GMEDHEGC@upgrade?5DTB?$AA@
CONST	SEGMENT
??_C@_0M@GMEDHEGC@upgrade?5DTB?$AA@ DB 'upgrade DTB', 00H ; `string'
CONST	ENDS
;	COMDAT ??_C@_03MGHMBJCF@log?$AA@
CONST	SEGMENT
??_C@_03MGHMBJCF@log?$AA@ DB 'log', 00H			; `string'
CONST	ENDS
;	COMDAT ??_C@_06HAIHALMP@?$DMtext?$DO?$AA@
CONST	SEGMENT
??_C@_06HAIHALMP@?$DMtext?$DO?$AA@ DB '<text>', 00H	; `string'
CONST	ENDS
;	COMDAT ??_C@_0BI@PAJJCIHA@writes?5text?5to?5log?5file?$AA@
CONST	SEGMENT
??_C@_0BI@PAJJCIHA@writes?5text?5to?5log?5file?$AA@ DB 'writes text to lo'
	DB	'g file', 00H				; `string'
CONST	ENDS
;	COMDAT ??_C@_06NFAFNNAC@setled?$AA@
CONST	SEGMENT
??_C@_06NFAFNNAC@setled?$AA@ DB 'setled', 00H		; `string'
CONST	ENDS
;	COMDAT ??_C@_06GBKFJNBA@?$DMmask?$DO?$AA@
CONST	SEGMENT
??_C@_06GBKFJNBA@?$DMmask?$DO?$AA@ DB '<mask>', 00H	; `string'
CONST	ENDS
;	COMDAT ??_C@_0N@HMCNNAJH@set?5atb?5LEDs?$AA@
CONST	SEGMENT
??_C@_0N@HMCNNAJH@set?5atb?5LEDs?$AA@ DB 'set atb LEDs', 00H ; `string'
CONST	ENDS
;	COMDAT ??_C@_07HPKCDJCF@welcome?$AA@
CONST	SEGMENT
??_C@_07HPKCDJCF@welcome?$AA@ DB 'welcome', 00H		; `string'
CONST	ENDS
;	COMDAT ??_C@_0BA@JCFODCLB@blink?5with?5LEDs?$AA@
CONST	SEGMENT
??_C@_0BA@JCFODCLB@blink?5with?5LEDs?$AA@ DB 'blink with LEDs', 00H ; `string'
CONST	ENDS
;	COMDAT ??_C@_07MIAMGNCH@rpclink?$AA@
CONST	SEGMENT
??_C@_07MIAMGNCH@rpclink?$AA@ DB 'rpclink', 00H		; `string'
CONST	ENDS
;	COMDAT ??_C@_0BH@OGGGGDPN@link?5all?5DTB?5functions?$AA@
CONST	SEGMENT
??_C@_0BH@OGGGGDPN@link?5all?5DTB?5functions?$AA@ DB 'link all DTB functi'
	DB	'ons', 00H					; `string'
CONST	ENDS
;	COMDAT ??_C@_05LBOHBHFK@close?$AA@
CONST	SEGMENT
??_C@_05LBOHBHFK@close?$AA@ DB 'close', 00H		; `string'
CONST	ENDS
;	COMDAT ??_C@_0BF@GHMKFAJA@close?5DTB?5connection?$AA@
CONST	SEGMENT
??_C@_0BF@GHMKFAJA@close?5DTB?5connection?$AA@ DB 'close DTB connection', 00H ; `string'
CONST	ENDS
;	COMDAT ??_C@_04PMOCAHAA@open?$AA@
CONST	SEGMENT
??_C@_04PMOCAHAA@open?$AA@ DB 'open', 00H		; `string'
CONST	ENDS
;	COMDAT ??_C@_08GPAIMGMB@?$FL?$DMname?$DO?$FN?$AA@
CONST	SEGMENT
??_C@_08GPAIMGMB@?$FL?$DMname?$DO?$FN?$AA@ DB '[<name>]', 00H ; `string'
CONST	ENDS
;	COMDAT ??_C@_0BH@PCINJPNM@open?5a?5DTB?5?$CIwith?5name?$CJ?$AA@
CONST	SEGMENT
??_C@_0BH@PCINJPNM@open?5a?5DTB?5?$CIwith?5name?$CJ?$AA@ DB 'open a DTB ('
	DB	'with name)', 00H				; `string'
CONST	ENDS
;	COMDAT ??_C@_04BMFHCNCO@scan?$AA@
CONST	SEGMENT
??_C@_04BMFHCNCO@scan?$AA@ DB 'scan', 00H		; `string'
CONST	ENDS
;	COMDAT ??_C@_00CNPNBAHC@?$AA@
CONST	SEGMENT
??_C@_00CNPNBAHC@?$AA@ DB 00H				; `string'
CONST	ENDS
;	COMDAT ??_C@_0CA@DMDEGAOE@Get?5infos?5of?5all?5connected?5DTBs?$AA@
CONST	SEGMENT
??_C@_0CA@DMDEGAOE@Get?5infos?5of?5all?5connected?5DTBs?$AA@ DB 'Get info'
	DB	's of all connected DTBs', 00H		; `string'
CONST	ENDS
;	COMDAT ??_C@_03GOMMIJBO@dtb?$AA@
CONST	SEGMENT
??_C@_03GOMMIJBO@dtb?$AA@ DB 'dtb', 00H			; `string'
CONST	ENDS
;	COMDAT xdata$x
xdata$x	SEGMENT
__catchsym$?cmd@@YAXXZ$2 DD 00H
	DD	FLAT:??_R0?AVCRpcError@@@8
	DD	0ffffffe8H
	DD	FLAT:__catch$?cmd@@YAXXZ$0
__unwindtable$?cmd@@YAXXZ DD 0ffffffffH
	DD	00H
	DD	0ffffffffH
	DD	00H
__tryblocktable$?cmd@@YAXXZ DD 00H
	DD	00H
	DD	01H
	DD	01H
	DD	FLAT:__catchsym$?cmd@@YAXXZ$2
__ehfuncinfo$?cmd@@YAXXZ DD 019930522H
	DD	02H
	DD	FLAT:__unwindtable$?cmd@@YAXXZ
	DD	01H
	DD	FLAT:__tryblocktable$?cmd@@YAXXZ
	DD	2 DUP(00H)
	DD	00H
	DD	01H
; Function compile flags: /Ogtp
; File c:\users\erich\documents\college\dtb_project\psi46test-master\psi46test-master\cmd.cpp
; File c:\users\erich\documents\college\dtb_project\psi46test-master\psi46test-master\cmd_dtb.h
; File c:\users\erich\documents\college\dtb_project\psi46test-master\psi46test-master\cmd_wafertest.h
; File c:\users\erich\documents\college\dtb_project\psi46test-master\psi46test-master\cmd_analyzer.h
; File c:\users\erich\documents\college\dtb_project\psi46test-master\psi46test-master\cmd.cpp
xdata$x	ENDS
;	COMDAT ?cmd@@YAXXZ
_TEXT	SEGMENT
_e$128402 = -24						; size = 8
__$EHRec$ = -16						; size = 16
?cmd@@YAXXZ PROC					; cmd, COMDAT

; 67   : {

  00000	55		 push	 ebp
  00001	8b ec		 mov	 ebp, esp
  00003	6a ff		 push	 -1
  00005	68 00 00 00 00	 push	 __ehhandler$?cmd@@YAXXZ
  0000a	64 a1 00 00 00
	00		 mov	 eax, DWORD PTR fs:0
  00010	50		 push	 eax
  00011	83 ec 0c	 sub	 esp, 12			; 0000000cH
  00014	53		 push	 ebx
  00015	56		 push	 esi
  00016	57		 push	 edi
  00017	a1 00 00 00 00	 mov	 eax, DWORD PTR ___security_cookie
  0001c	33 c5		 xor	 eax, ebp
  0001e	50		 push	 eax
  0001f	8d 45 f4	 lea	 eax, DWORD PTR __$EHRec$[ebp+4]
  00022	64 a3 00 00 00
	00		 mov	 DWORD PTR fs:0, eax
  00028	89 65 f0	 mov	 DWORD PTR __$EHRec$[ebp], esp
; File c:\users\erich\documents\college\dtb_project\psi46test-master\psi46test-master\cmd_dtb.h

; 24   : HELP_CAT("dtb");

  0002b	68 00 00 00 00	 push	 OFFSET ??_C@_03GOMMIJBO@dtb?$AA@
  00030	b9 00 00 00 00	 mov	 ecx, OFFSET ?cmd_intp@@3VCInterpreter@@A ; cmd_intp
  00035	e8 00 00 00 00	 call	 ?AddHelpCategory@CInterpreter@@QAEXQBD@Z ; CInterpreter::AddHelpCategory

; 25   : 
; 26   : CMD_REG(scan, "", "Get infos of all connected DTBs")

  0003a	68 00 00 00 00	 push	 OFFSET ??_C@_0CA@DMDEGAOE@Get?5infos?5of?5all?5connected?5DTBs?$AA@
  0003f	68 00 00 00 00	 push	 OFFSET ??_C@_00CNPNBAHC@?$AA@
  00044	68 00 00 00 00	 push	 OFFSET ?cmd_scan@@YA_NAAVCCmdLine@@@Z ; cmd_scan
  00049	68 00 00 00 00	 push	 OFFSET ??_C@_04BMFHCNCO@scan?$AA@
  0004e	b9 00 00 00 00	 mov	 ecx, OFFSET ?cmd_intp@@3VCInterpreter@@A ; cmd_intp
  00053	e8 00 00 00 00	 call	 ?AddCommand@CInterpreter@@QAEXQBDP6A_NAAVCCmdLine@@@Z00@Z ; CInterpreter::AddCommand

; 27   : CMD_REG(open, "[<name>]", "open a DTB (with name)")

  00058	68 00 00 00 00	 push	 OFFSET ??_C@_0BH@PCINJPNM@open?5a?5DTB?5?$CIwith?5name?$CJ?$AA@
  0005d	68 00 00 00 00	 push	 OFFSET ??_C@_08GPAIMGMB@?$FL?$DMname?$DO?$FN?$AA@
  00062	68 00 00 00 00	 push	 OFFSET ?cmd_open@@YA_NAAVCCmdLine@@@Z ; cmd_open
  00067	68 00 00 00 00	 push	 OFFSET ??_C@_04PMOCAHAA@open?$AA@
  0006c	b9 00 00 00 00	 mov	 ecx, OFFSET ?cmd_intp@@3VCInterpreter@@A ; cmd_intp
  00071	e8 00 00 00 00	 call	 ?AddCommand@CInterpreter@@QAEXQBDP6A_NAAVCCmdLine@@@Z00@Z ; CInterpreter::AddCommand

; 28   : CMD_REG(close, "", "close DTB connection")

  00076	68 00 00 00 00	 push	 OFFSET ??_C@_0BF@GHMKFAJA@close?5DTB?5connection?$AA@
  0007b	68 00 00 00 00	 push	 OFFSET ??_C@_00CNPNBAHC@?$AA@
  00080	68 00 00 00 00	 push	 OFFSET ?cmd_close@@YA_NAAVCCmdLine@@@Z ; cmd_close
  00085	68 00 00 00 00	 push	 OFFSET ??_C@_05LBOHBHFK@close?$AA@
  0008a	b9 00 00 00 00	 mov	 ecx, OFFSET ?cmd_intp@@3VCInterpreter@@A ; cmd_intp
  0008f	e8 00 00 00 00	 call	 ?AddCommand@CInterpreter@@QAEXQBDP6A_NAAVCCmdLine@@@Z00@Z ; CInterpreter::AddCommand

; 29   : CMD_REG(rpclink, "", "link all DTB functions")

  00094	68 00 00 00 00	 push	 OFFSET ??_C@_0BH@OGGGGDPN@link?5all?5DTB?5functions?$AA@
  00099	68 00 00 00 00	 push	 OFFSET ??_C@_00CNPNBAHC@?$AA@
  0009e	68 00 00 00 00	 push	 OFFSET ?cmd_rpclink@@YA_NAAVCCmdLine@@@Z ; cmd_rpclink
  000a3	68 00 00 00 00	 push	 OFFSET ??_C@_07MIAMGNCH@rpclink?$AA@
  000a8	b9 00 00 00 00	 mov	 ecx, OFFSET ?cmd_intp@@3VCInterpreter@@A ; cmd_intp
  000ad	e8 00 00 00 00	 call	 ?AddCommand@CInterpreter@@QAEXQBDP6A_NAAVCCmdLine@@@Z00@Z ; CInterpreter::AddCommand

; 30   : CMD_REG(welcome, "", "blink with LEDs")

  000b2	68 00 00 00 00	 push	 OFFSET ??_C@_0BA@JCFODCLB@blink?5with?5LEDs?$AA@
  000b7	68 00 00 00 00	 push	 OFFSET ??_C@_00CNPNBAHC@?$AA@
  000bc	68 00 00 00 00	 push	 OFFSET ?cmd_welcome@@YA_NAAVCCmdLine@@@Z ; cmd_welcome
  000c1	68 00 00 00 00	 push	 OFFSET ??_C@_07HPKCDJCF@welcome?$AA@
  000c6	b9 00 00 00 00	 mov	 ecx, OFFSET ?cmd_intp@@3VCInterpreter@@A ; cmd_intp
  000cb	e8 00 00 00 00	 call	 ?AddCommand@CInterpreter@@QAEXQBDP6A_NAAVCCmdLine@@@Z00@Z ; CInterpreter::AddCommand

; 31   : CMD_REG(setled, "<mask>", "set atb LEDs")

  000d0	68 00 00 00 00	 push	 OFFSET ??_C@_0N@HMCNNAJH@set?5atb?5LEDs?$AA@
  000d5	68 00 00 00 00	 push	 OFFSET ??_C@_06GBKFJNBA@?$DMmask?$DO?$AA@
  000da	68 00 00 00 00	 push	 OFFSET ?cmd_setled@@YA_NAAVCCmdLine@@@Z ; cmd_setled
  000df	68 00 00 00 00	 push	 OFFSET ??_C@_06NFAFNNAC@setled?$AA@
  000e4	b9 00 00 00 00	 mov	 ecx, OFFSET ?cmd_intp@@3VCInterpreter@@A ; cmd_intp
  000e9	e8 00 00 00 00	 call	 ?AddCommand@CInterpreter@@QAEXQBDP6A_NAAVCCmdLine@@@Z00@Z ; CInterpreter::AddCommand

; 32   : CMD_REG(log, "<text>", "writes text to log file")

  000ee	68 00 00 00 00	 push	 OFFSET ??_C@_0BI@PAJJCIHA@writes?5text?5to?5log?5file?$AA@
  000f3	68 00 00 00 00	 push	 OFFSET ??_C@_06HAIHALMP@?$DMtext?$DO?$AA@
  000f8	68 00 00 00 00	 push	 OFFSET ?cmd_log@@YA_NAAVCCmdLine@@@Z ; cmd_log
  000fd	68 00 00 00 00	 push	 OFFSET ??_C@_03MGHMBJCF@log?$AA@
  00102	b9 00 00 00 00	 mov	 ecx, OFFSET ?cmd_intp@@3VCInterpreter@@A ; cmd_intp
  00107	e8 00 00 00 00	 call	 ?AddCommand@CInterpreter@@QAEXQBDP6A_NAAVCCmdLine@@@Z00@Z ; CInterpreter::AddCommand

; 33   : CMD_REG(upgrade, "<filename>", "upgrade DTB")

  0010c	68 00 00 00 00	 push	 OFFSET ??_C@_0M@GMEDHEGC@upgrade?5DTB?$AA@
  00111	68 00 00 00 00	 push	 OFFSET ??_C@_0L@JEMCAPAJ@?$DMfilename?$DO?$AA@
  00116	68 00 00 00 00	 push	 OFFSET ?cmd_upgrade@@YA_NAAVCCmdLine@@@Z ; cmd_upgrade
  0011b	68 00 00 00 00	 push	 OFFSET ??_C@_07NACIIPHM@upgrade?$AA@
  00120	b9 00 00 00 00	 mov	 ecx, OFFSET ?cmd_intp@@3VCInterpreter@@A ; cmd_intp
  00125	e8 00 00 00 00	 call	 ?AddCommand@CInterpreter@@QAEXQBDP6A_NAAVCCmdLine@@@Z00@Z ; CInterpreter::AddCommand

; 34   : CMD_REG(rpcinfo, "", "list all DTB functions")

  0012a	68 00 00 00 00	 push	 OFFSET ??_C@_0BH@JJAKCEEG@list?5all?5DTB?5functions?$AA@
  0012f	68 00 00 00 00	 push	 OFFSET ??_C@_00CNPNBAHC@?$AA@
  00134	68 00 00 00 00	 push	 OFFSET ?cmd_rpcinfo@@YA_NAAVCCmdLine@@@Z ; cmd_rpcinfo
  00139	68 00 00 00 00	 push	 OFFSET ??_C@_07PHEEEOFC@rpcinfo?$AA@
  0013e	b9 00 00 00 00	 mov	 ecx, OFFSET ?cmd_intp@@3VCInterpreter@@A ; cmd_intp
  00143	e8 00 00 00 00	 call	 ?AddCommand@CInterpreter@@QAEXQBDP6A_NAAVCCmdLine@@@Z00@Z ; CInterpreter::AddCommand

; 35   : CMD_REG(info, "", "show detailed DTB info")

  00148	68 00 00 00 00	 push	 OFFSET ??_C@_0BH@HEFMDKIG@show?5detailed?5DTB?5info?$AA@
  0014d	68 00 00 00 00	 push	 OFFSET ??_C@_00CNPNBAHC@?$AA@
  00152	68 00 00 00 00	 push	 OFFSET ?cmd_info@@YA_NAAVCCmdLine@@@Z ; cmd_info
  00157	68 00 00 00 00	 push	 OFFSET ??_C@_04NIDJFNBE@info?$AA@
  0015c	b9 00 00 00 00	 mov	 ecx, OFFSET ?cmd_intp@@3VCInterpreter@@A ; cmd_intp
  00161	e8 00 00 00 00	 call	 ?AddCommand@CInterpreter@@QAEXQBDP6A_NAAVCCmdLine@@@Z00@Z ; CInterpreter::AddCommand

; 36   : CMD_REG(ver, "", "shows DTB software version number")

  00166	68 00 00 00 00	 push	 OFFSET ??_C@_0CC@CGFDCNF@shows?5DTB?5software?5version?5numbe@
  0016b	68 00 00 00 00	 push	 OFFSET ??_C@_00CNPNBAHC@?$AA@
  00170	68 00 00 00 00	 push	 OFFSET ?cmd_ver@@YA_NAAVCCmdLine@@@Z ; cmd_ver
  00175	68 00 00 00 00	 push	 OFFSET ??_C@_03MDPKMNBM@ver?$AA@
  0017a	b9 00 00 00 00	 mov	 ecx, OFFSET ?cmd_intp@@3VCInterpreter@@A ; cmd_intp
  0017f	e8 00 00 00 00	 call	 ?AddCommand@CInterpreter@@QAEXQBDP6A_NAAVCCmdLine@@@Z00@Z ; CInterpreter::AddCommand

; 37   : CMD_REG(version, "", "shows DTB software version")

  00184	68 00 00 00 00	 push	 OFFSET ??_C@_0BL@FHEPIIAB@shows?5DTB?5software?5version?$AA@
  00189	68 00 00 00 00	 push	 OFFSET ??_C@_00CNPNBAHC@?$AA@
  0018e	68 00 00 00 00	 push	 OFFSET ?cmd_version@@YA_NAAVCCmdLine@@@Z ; cmd_version
  00193	68 00 00 00 00	 push	 OFFSET ??_C@_07CPCPJPKL@version?$AA@
  00198	b9 00 00 00 00	 mov	 ecx, OFFSET ?cmd_intp@@3VCInterpreter@@A ; cmd_intp
  0019d	e8 00 00 00 00	 call	 ?AddCommand@CInterpreter@@QAEXQBDP6A_NAAVCCmdLine@@@Z00@Z ; CInterpreter::AddCommand

; 38   : CMD_REG(boardid, "", "get board id")

  001a2	68 00 00 00 00	 push	 OFFSET ??_C@_0N@KIDOIMND@get?5board?5id?$AA@
  001a7	68 00 00 00 00	 push	 OFFSET ??_C@_00CNPNBAHC@?$AA@
  001ac	68 00 00 00 00	 push	 OFFSET ?cmd_boardid@@YA_NAAVCCmdLine@@@Z ; cmd_boardid
  001b1	68 00 00 00 00	 push	 OFFSET ??_C@_07MHIEOKFE@boardid?$AA@
  001b6	b9 00 00 00 00	 mov	 ecx, OFFSET ?cmd_intp@@3VCInterpreter@@A ; cmd_intp
  001bb	e8 00 00 00 00	 call	 ?AddCommand@CInterpreter@@QAEXQBDP6A_NAAVCCmdLine@@@Z00@Z ; CInterpreter::AddCommand

; 39   : CMD_REG(init, "", "inits the testboard")

  001c0	68 00 00 00 00	 push	 OFFSET ??_C@_0BE@GHKMBLJD@inits?5the?5testboard?$AA@
  001c5	68 00 00 00 00	 push	 OFFSET ??_C@_00CNPNBAHC@?$AA@
  001ca	68 00 00 00 00	 push	 OFFSET ?cmd_init@@YA_NAAVCCmdLine@@@Z ; cmd_init
  001cf	68 00 00 00 00	 push	 OFFSET ??_C@_04HKFDNBLD@init?$AA@
  001d4	b9 00 00 00 00	 mov	 ecx, OFFSET ?cmd_intp@@3VCInterpreter@@A ; cmd_intp
  001d9	e8 00 00 00 00	 call	 ?AddCommand@CInterpreter@@QAEXQBDP6A_NAAVCCmdLine@@@Z00@Z ; CInterpreter::AddCommand

; 40   : CMD_REG(flush, "", "flushes usb buffer")

  001de	68 00 00 00 00	 push	 OFFSET ??_C@_0BD@NBODGCAO@flushes?5usb?5buffer?$AA@
  001e3	68 00 00 00 00	 push	 OFFSET ??_C@_00CNPNBAHC@?$AA@
  001e8	68 00 00 00 00	 push	 OFFSET ?cmd_flush@@YA_NAAVCCmdLine@@@Z ; cmd_flush
  001ed	68 00 00 00 00	 push	 OFFSET ??_C@_05GLCAEPFP@flush?$AA@
  001f2	b9 00 00 00 00	 mov	 ecx, OFFSET ?cmd_intp@@3VCInterpreter@@A ; cmd_intp
  001f7	e8 00 00 00 00	 call	 ?AddCommand@CInterpreter@@QAEXQBDP6A_NAAVCCmdLine@@@Z00@Z ; CInterpreter::AddCommand

; 41   : CMD_REG(clear, "", "clears usb data buffer")

  001fc	68 00 00 00 00	 push	 OFFSET ??_C@_0BH@HJAFOACO@clears?5usb?5data?5buffer?$AA@
  00201	68 00 00 00 00	 push	 OFFSET ??_C@_00CNPNBAHC@?$AA@
  00206	68 00 00 00 00	 push	 OFFSET ?cmd_clear@@YA_NAAVCCmdLine@@@Z ; cmd_clear
  0020b	68 00 00 00 00	 push	 OFFSET ??_C@_05MEHLAELG@clear?$AA@
  00210	b9 00 00 00 00	 mov	 ecx, OFFSET ?cmd_intp@@3VCInterpreter@@A ; cmd_intp
  00215	e8 00 00 00 00	 call	 ?AddCommand@CInterpreter@@QAEXQBDP6A_NAAVCCmdLine@@@Z00@Z ; CInterpreter::AddCommand

; 42   : 
; 43   : CMD_REG(init2, "", "inits I2C")

  0021a	68 00 00 00 00	 push	 OFFSET ??_C@_09CEHFMHEJ@inits?5I2C?$AA@
  0021f	68 00 00 00 00	 push	 OFFSET ??_C@_00CNPNBAHC@?$AA@
  00224	68 00 00 00 00	 push	 OFFSET ?cmd_init2@@YA_NAAVCCmdLine@@@Z ; cmd_init2
  00229	68 00 00 00 00	 push	 OFFSET ??_C@_05LPGCOFJG@init2?$AA@
  0022e	b9 00 00 00 00	 mov	 ecx, OFFSET ?cmd_intp@@3VCInterpreter@@A ; cmd_intp
  00233	e8 00 00 00 00	 call	 ?AddCommand@CInterpreter@@QAEXQBDP6A_NAAVCCmdLine@@@Z00@Z ; CInterpreter::AddCommand

; 44   : 
; 45   : 
; 46   : // =======================================================================
; 47   : //  delay commands
; 48   : // =======================================================================
; 49   : 
; 50   : CMD_REG(udelay, "<us>", "waits <us> microseconds")

  00238	68 00 00 00 00	 push	 OFFSET ??_C@_0BI@JJHALEMA@waits?5?$DMus?$DO?5microseconds?$AA@
  0023d	68 00 00 00 00	 push	 OFFSET ??_C@_04BGJPMALP@?$DMus?$DO?$AA@
  00242	68 00 00 00 00	 push	 OFFSET ?cmd_udelay@@YA_NAAVCCmdLine@@@Z ; cmd_udelay
  00247	68 00 00 00 00	 push	 OFFSET ??_C@_06NIGMEBGP@udelay?$AA@
  0024c	b9 00 00 00 00	 mov	 ecx, OFFSET ?cmd_intp@@3VCInterpreter@@A ; cmd_intp
  00251	e8 00 00 00 00	 call	 ?AddCommand@CInterpreter@@QAEXQBDP6A_NAAVCCmdLine@@@Z00@Z ; CInterpreter::AddCommand

; 51   : CMD_REG(mdelay, "<ms>", "waits <ms> milliseconds")

  00256	68 00 00 00 00	 push	 OFFSET ??_C@_0BI@LBLEFODE@waits?5?$DMms?$DO?5milliseconds?$AA@
  0025b	68 00 00 00 00	 push	 OFFSET ??_C@_04IDDCLPMP@?$DMms?$DO?$AA@
  00260	68 00 00 00 00	 push	 OFFSET ?cmd_mdelay@@YA_NAAVCCmdLine@@@Z ; cmd_mdelay
  00265	68 00 00 00 00	 push	 OFFSET ??_C@_06IMFNJDMG@mdelay?$AA@
  0026a	b9 00 00 00 00	 mov	 ecx, OFFSET ?cmd_intp@@3VCInterpreter@@A ; cmd_intp
  0026f	e8 00 00 00 00	 call	 ?AddCommand@CInterpreter@@QAEXQBDP6A_NAAVCCmdLine@@@Z00@Z ; CInterpreter::AddCommand

; 52   : 
; 53   : 
; 54   : // =======================================================================
; 55   : //  test board commands
; 56   : // =======================================================================
; 57   : 
; 58   : CMD_REG(clksrc, "<source>", "Select clock source")

  00274	68 00 00 00 00	 push	 OFFSET ??_C@_0BE@DEOPGMAG@Select?5clock?5source?$AA@
  00279	68 00 00 00 00	 push	 OFFSET ??_C@_08HAGFBHGO@?$DMsource?$DO?$AA@
  0027e	68 00 00 00 00	 push	 OFFSET ?cmd_clksrc@@YA_NAAVCCmdLine@@@Z ; cmd_clksrc
  00283	68 00 00 00 00	 push	 OFFSET ??_C@_06CJDGHEKM@clksrc?$AA@
  00288	b9 00 00 00 00	 mov	 ecx, OFFSET ?cmd_intp@@3VCInterpreter@@A ; cmd_intp
  0028d	e8 00 00 00 00	 call	 ?AddCommand@CInterpreter@@QAEXQBDP6A_NAAVCCmdLine@@@Z00@Z ; CInterpreter::AddCommand

; 59   : CMD_REG(clkok, "clkok", "Check if ext clock is present")

  00292	68 00 00 00 00	 push	 OFFSET ??_C@_0BO@LAJLJCLL@Check?5if?5ext?5clock?5is?5present?$AA@
  00297	68 00 00 00 00	 push	 OFFSET ??_C@_05LFDKPHJH@clkok?$AA@
  0029c	68 00 00 00 00	 push	 OFFSET ?cmd_clkok@@YA_NAAVCCmdLine@@@Z ; cmd_clkok
  002a1	68 00 00 00 00	 push	 OFFSET ??_C@_05LFDKPHJH@clkok?$AA@
  002a6	b9 00 00 00 00	 mov	 ecx, OFFSET ?cmd_intp@@3VCInterpreter@@A ; cmd_intp
  002ab	e8 00 00 00 00	 call	 ?AddCommand@CInterpreter@@QAEXQBDP6A_NAAVCCmdLine@@@Z00@Z ; CInterpreter::AddCommand

; 60   : CMD_REG(fsel, "<freqdiv>", "clock frequency select")

  002b0	68 00 00 00 00	 push	 OFFSET ??_C@_0BH@LMKLAOEO@clock?5frequency?5select?$AA@
  002b5	68 00 00 00 00	 push	 OFFSET ??_C@_09INGDEAEB@?$DMfreqdiv?$DO?$AA@
  002ba	68 00 00 00 00	 push	 OFFSET ?cmd_fsel@@YA_NAAVCCmdLine@@@Z ; cmd_fsel
  002bf	68 00 00 00 00	 push	 OFFSET ??_C@_04NBHBKIBN@fsel?$AA@
  002c4	b9 00 00 00 00	 mov	 ecx, OFFSET ?cmd_intp@@3VCInterpreter@@A ; cmd_intp
  002c9	e8 00 00 00 00	 call	 ?AddCommand@CInterpreter@@QAEXQBDP6A_NAAVCCmdLine@@@Z00@Z ; CInterpreter::AddCommand

; 61   : CMD_REG(stretch, "<src> <delay> <width>", "stretch clock")

  002ce	68 00 00 00 00	 push	 OFFSET ??_C@_0O@HFPOEM@stretch?5clock?$AA@
  002d3	68 00 00 00 00	 push	 OFFSET ??_C@_0BG@NCJGPHBE@?$DMsrc?$DO?5?$DMdelay?$DO?5?$DMwidth?$DO?$AA@
  002d8	68 00 00 00 00	 push	 OFFSET ?cmd_stretch@@YA_NAAVCCmdLine@@@Z ; cmd_stretch
  002dd	68 00 00 00 00	 push	 OFFSET ??_C@_07LEPFLFDH@stretch?$AA@
  002e2	b9 00 00 00 00	 mov	 ecx, OFFSET ?cmd_intp@@3VCInterpreter@@A ; cmd_intp
  002e7	e8 00 00 00 00	 call	 ?AddCommand@CInterpreter@@QAEXQBDP6A_NAAVCCmdLine@@@Z00@Z ; CInterpreter::AddCommand

; 62   : CMD_REG(clk, "<delay>", "clk delay")

  002ec	68 00 00 00 00	 push	 OFFSET ??_C@_09NKGBEBFJ@clk?5delay?$AA@
  002f1	68 00 00 00 00	 push	 OFFSET ??_C@_07KKMCNCDD@?$DMdelay?$DO?$AA@
  002f6	68 00 00 00 00	 push	 OFFSET ?cmd_clk@@YA_NAAVCCmdLine@@@Z ; cmd_clk
  002fb	68 00 00 00 00	 push	 OFFSET ??_C@_03DAOMPICG@clk?$AA@
  00300	b9 00 00 00 00	 mov	 ecx, OFFSET ?cmd_intp@@3VCInterpreter@@A ; cmd_intp
  00305	e8 00 00 00 00	 call	 ?AddCommand@CInterpreter@@QAEXQBDP6A_NAAVCCmdLine@@@Z00@Z ; CInterpreter::AddCommand

; 63   : CMD_REG(sda, "<delay>", "sda delay")

  0030a	68 00 00 00 00	 push	 OFFSET ??_C@_09NHNHHOGB@sda?5delay?$AA@
  0030f	68 00 00 00 00	 push	 OFFSET ??_C@_07KKMCNCDD@?$DMdelay?$DO?$AA@
  00314	68 00 00 00 00	 push	 OFFSET ?cmd_sda@@YA_NAAVCCmdLine@@@Z ; cmd_sda
  00319	68 00 00 00 00	 push	 OFFSET ??_C@_03JEAJBGIL@sda?$AA@
  0031e	b9 00 00 00 00	 mov	 ecx, OFFSET ?cmd_intp@@3VCInterpreter@@A ; cmd_intp
  00323	e8 00 00 00 00	 call	 ?AddCommand@CInterpreter@@QAEXQBDP6A_NAAVCCmdLine@@@Z00@Z ; CInterpreter::AddCommand

; 64   : // CMD_REG(rda, "", "")
; 65   : CMD_REG(ctr, "<delay>", "ctr delay")

  00328	68 00 00 00 00	 push	 OFFSET ??_C@_09KOINILDA@ctr?5delay?$AA@
  0032d	68 00 00 00 00	 push	 OFFSET ??_C@_07KKMCNCDD@?$DMdelay?$DO?$AA@
  00332	68 00 00 00 00	 push	 OFFSET ?cmd_ctr@@YA_NAAVCCmdLine@@@Z ; cmd_ctr
  00337	68 00 00 00 00	 push	 OFFSET ??_C@_03LJNJKDPG@ctr?$AA@
  0033c	b9 00 00 00 00	 mov	 ecx, OFFSET ?cmd_intp@@3VCInterpreter@@A ; cmd_intp
  00341	e8 00 00 00 00	 call	 ?AddCommand@CInterpreter@@QAEXQBDP6A_NAAVCCmdLine@@@Z00@Z ; CInterpreter::AddCommand

; 66   : CMD_REG(tin, "<delay>", "tin delay")

  00346	68 00 00 00 00	 push	 OFFSET ??_C@_09BNGEJAOD@tin?5delay?$AA@
  0034b	68 00 00 00 00	 push	 OFFSET ??_C@_07KKMCNCDD@?$DMdelay?$DO?$AA@
  00350	68 00 00 00 00	 push	 OFFSET ?cmd_tin@@YA_NAAVCCmdLine@@@Z ; cmd_tin
  00355	68 00 00 00 00	 push	 OFFSET ??_C@_03IGJOKBKO@tin?$AA@
  0035a	b9 00 00 00 00	 mov	 ecx, OFFSET ?cmd_intp@@3VCInterpreter@@A ; cmd_intp
  0035f	e8 00 00 00 00	 call	 ?AddCommand@CInterpreter@@QAEXQBDP6A_NAAVCCmdLine@@@Z00@Z ; CInterpreter::AddCommand

; 67   : CMD_REG(clklvl, "<level>", "clk signal level")

  00364	68 00 00 00 00	 push	 OFFSET ??_C@_0BB@DJKDMKFK@clk?5signal?5level?$AA@
  00369	68 00 00 00 00	 push	 OFFSET ??_C@_07CGPCOFLL@?$DMlevel?$DO?$AA@
  0036e	68 00 00 00 00	 push	 OFFSET ?cmd_clklvl@@YA_NAAVCCmdLine@@@Z ; cmd_clklvl
  00373	68 00 00 00 00	 push	 OFFSET ??_C@_06KBNNIHHG@clklvl?$AA@
  00378	b9 00 00 00 00	 mov	 ecx, OFFSET ?cmd_intp@@3VCInterpreter@@A ; cmd_intp
  0037d	e8 00 00 00 00	 call	 ?AddCommand@CInterpreter@@QAEXQBDP6A_NAAVCCmdLine@@@Z00@Z ; CInterpreter::AddCommand

; 68   : CMD_REG(sdalvl, "<level>", "sda signel level")

  00382	68 00 00 00 00	 push	 OFFSET ??_C@_0BB@GHACOAHC@sda?5signel?5level?$AA@
  00387	68 00 00 00 00	 push	 OFFSET ??_C@_07CGPCOFLL@?$DMlevel?$DO?$AA@
  0038c	68 00 00 00 00	 push	 OFFSET ?cmd_sdalvl@@YA_NAAVCCmdLine@@@Z ; cmd_sdalvl
  00391	68 00 00 00 00	 push	 OFFSET ??_C@_06GAOAIBHE@sdalvl?$AA@
  00396	b9 00 00 00 00	 mov	 ecx, OFFSET ?cmd_intp@@3VCInterpreter@@A ; cmd_intp
  0039b	e8 00 00 00 00	 call	 ?AddCommand@CInterpreter@@QAEXQBDP6A_NAAVCCmdLine@@@Z00@Z ; CInterpreter::AddCommand

; 69   : CMD_REG(ctrlvl, "<level>", "ctr signel level")

  003a0	68 00 00 00 00	 push	 OFFSET ??_C@_0BB@MDGLLCKH@ctr?5signel?5level?$AA@
  003a5	68 00 00 00 00	 push	 OFFSET ??_C@_07CGPCOFLL@?$DMlevel?$DO?$AA@
  003aa	68 00 00 00 00	 push	 OFFSET ?cmd_ctrlvl@@YA_NAAVCCmdLine@@@Z ; cmd_ctrlvl
  003af	68 00 00 00 00	 push	 OFFSET ??_C@_06CDKIPCHD@ctrlvl?$AA@
  003b4	b9 00 00 00 00	 mov	 ecx, OFFSET ?cmd_intp@@3VCInterpreter@@A ; cmd_intp
  003b9	e8 00 00 00 00	 call	 ?AddCommand@CInterpreter@@QAEXQBDP6A_NAAVCCmdLine@@@Z00@Z ; CInterpreter::AddCommand

; 70   : CMD_REG(tinlvl, "<level>", "tin signel level")

  003be	68 00 00 00 00	 push	 OFFSET ??_C@_0BB@BKFCBNPN@tin?5signel?5level?$AA@
  003c3	68 00 00 00 00	 push	 OFFSET ??_C@_07CGPCOFLL@?$DMlevel?$DO?$AA@
  003c8	68 00 00 00 00	 push	 OFFSET ?cmd_tinlvl@@YA_NAAVCCmdLine@@@Z ; cmd_tinlvl
  003cd	68 00 00 00 00	 push	 OFFSET ??_C@_06JLIJDLPF@tinlvl?$AA@
  003d2	b9 00 00 00 00	 mov	 ecx, OFFSET ?cmd_intp@@3VCInterpreter@@A ; cmd_intp
  003d7	e8 00 00 00 00	 call	 ?AddCommand@CInterpreter@@QAEXQBDP6A_NAAVCCmdLine@@@Z00@Z ; CInterpreter::AddCommand

; 71   : CMD_REG(clkmode, "<mode>", "clk mode")

  003dc	68 00 00 00 00	 push	 OFFSET ??_C@_08CAPCFGFK@clk?5mode?$AA@
  003e1	68 00 00 00 00	 push	 OFFSET ??_C@_06BJMFGBFN@?$DMmode?$DO?$AA@
  003e6	68 00 00 00 00	 push	 OFFSET ?cmd_clkmode@@YA_NAAVCCmdLine@@@Z ; cmd_clkmode
  003eb	68 00 00 00 00	 push	 OFFSET ??_C@_07LPCPPGHB@clkmode?$AA@
  003f0	b9 00 00 00 00	 mov	 ecx, OFFSET ?cmd_intp@@3VCInterpreter@@A ; cmd_intp
  003f5	e8 00 00 00 00	 call	 ?AddCommand@CInterpreter@@QAEXQBDP6A_NAAVCCmdLine@@@Z00@Z ; CInterpreter::AddCommand

; 72   : CMD_REG(sdamode, "<mode>", "sda mode")

  003fa	68 00 00 00 00	 push	 OFFSET ??_C@_08PLKHFANA@sda?5mode?$AA@
  003ff	68 00 00 00 00	 push	 OFFSET ??_C@_06BJMFGBFN@?$DMmode?$DO?$AA@
  00404	68 00 00 00 00	 push	 OFFSET ?cmd_sdamode@@YA_NAAVCCmdLine@@@Z ; cmd_sdamode
  00409	68 00 00 00 00	 push	 OFFSET ??_C@_07FBOAKKFL@sdamode?$AA@
  0040e	b9 00 00 00 00	 mov	 ecx, OFFSET ?cmd_intp@@3VCInterpreter@@A ; cmd_intp
  00413	e8 00 00 00 00	 call	 ?AddCommand@CInterpreter@@QAEXQBDP6A_NAAVCCmdLine@@@Z00@Z ; CInterpreter::AddCommand

; 73   : CMD_REG(ctrmode, "<mode>", "ctr mode")

  00418	68 00 00 00 00	 push	 OFFSET ??_C@_08HNOKKFNJ@ctr?5mode?$AA@
  0041d	68 00 00 00 00	 push	 OFFSET ??_C@_06BJMFGBFN@?$DMmode?$DO?$AA@
  00422	68 00 00 00 00	 push	 OFFSET ?cmd_ctrmode@@YA_NAAVCCmdLine@@@Z ; cmd_ctrmode
  00427	68 00 00 00 00	 push	 OFFSET ??_C@_07MPMHHHIL@ctrmode?$AA@
  0042c	b9 00 00 00 00	 mov	 ecx, OFFSET ?cmd_intp@@3VCInterpreter@@A ; cmd_intp
  00431	e8 00 00 00 00	 call	 ?AddCommand@CInterpreter@@QAEXQBDP6A_NAAVCCmdLine@@@Z00@Z ; CInterpreter::AddCommand

; 74   : CMD_REG(tinmode, "<mode>", "tin mode")

  00436	68 00 00 00 00	 push	 OFFSET ??_C@_08PCILFICB@tin?5mode?$AA@
  0043b	68 00 00 00 00	 push	 OFFSET ??_C@_06BJMFGBFN@?$DMmode?$DO?$AA@
  00440	68 00 00 00 00	 push	 OFFSET ?cmd_tinmode@@YA_NAAVCCmdLine@@@Z ; cmd_tinmode
  00445	68 00 00 00 00	 push	 OFFSET ??_C@_07MLKEHAFH@tinmode?$AA@
  0044a	b9 00 00 00 00	 mov	 ecx, OFFSET ?cmd_intp@@3VCInterpreter@@A ; cmd_intp
  0044f	e8 00 00 00 00	 call	 ?AddCommand@CInterpreter@@QAEXQBDP6A_NAAVCCmdLine@@@Z00@Z ; CInterpreter::AddCommand

; 75   : CMD_REG(sigoffset, "<offset>", "output signal offset")

  00454	68 00 00 00 00	 push	 OFFSET ??_C@_0BF@MLCJGEOD@output?5signal?5offset?$AA@
  00459	68 00 00 00 00	 push	 OFFSET ??_C@_08EOEELJMH@?$DMoffset?$DO?$AA@
  0045e	68 00 00 00 00	 push	 OFFSET ?cmd_sigoffset@@YA_NAAVCCmdLine@@@Z ; cmd_sigoffset
  00463	68 00 00 00 00	 push	 OFFSET ??_C@_09OCABNPKC@sigoffset?$AA@
  00468	b9 00 00 00 00	 mov	 ecx, OFFSET ?cmd_intp@@3VCInterpreter@@A ; cmd_intp
  0046d	e8 00 00 00 00	 call	 ?AddCommand@CInterpreter@@QAEXQBDP6A_NAAVCCmdLine@@@Z00@Z ; CInterpreter::AddCommand

; 76   : CMD_REG(lvds, "", "LVDS inputs")

  00472	68 00 00 00 00	 push	 OFFSET ??_C@_0M@NKLJFBHN@LVDS?5inputs?$AA@
  00477	68 00 00 00 00	 push	 OFFSET ??_C@_00CNPNBAHC@?$AA@
  0047c	68 00 00 00 00	 push	 OFFSET ?cmd_lvds@@YA_NAAVCCmdLine@@@Z ; cmd_lvds
  00481	68 00 00 00 00	 push	 OFFSET ??_C@_04GAIHCECH@lvds?$AA@
  00486	b9 00 00 00 00	 mov	 ecx, OFFSET ?cmd_intp@@3VCInterpreter@@A ; cmd_intp
  0048b	e8 00 00 00 00	 call	 ?AddCommand@CInterpreter@@QAEXQBDP6A_NAAVCCmdLine@@@Z00@Z ; CInterpreter::AddCommand

; 77   : CMD_REG(lcds, "", "LCDS inputs")

  00490	68 00 00 00 00	 push	 OFFSET ??_C@_0M@FBIDJPE@LCDS?5inputs?$AA@
  00495	68 00 00 00 00	 push	 OFFSET ??_C@_00CNPNBAHC@?$AA@
  0049a	68 00 00 00 00	 push	 OFFSET ?cmd_lcds@@YA_NAAVCCmdLine@@@Z ; cmd_lcds
  0049f	68 00 00 00 00	 push	 OFFSET ??_C@_04HEAIDIK@lcds?$AA@
  004a4	b9 00 00 00 00	 mov	 ecx, OFFSET ?cmd_intp@@3VCInterpreter@@A ; cmd_intp
  004a9	e8 00 00 00 00	 call	 ?AddCommand@CInterpreter@@QAEXQBDP6A_NAAVCCmdLine@@@Z00@Z ; CInterpreter::AddCommand

; 78   : // CMD_REG(tout, "", "")
; 79   : // CMD_REG(trigout, "", "")
; 80   : CMD_REG(pon, "", "switch ROC power on")

  004ae	68 00 00 00 00	 push	 OFFSET ??_C@_0BE@MCACKIJL@switch?5ROC?5power?5on?$AA@
  004b3	68 00 00 00 00	 push	 OFFSET ??_C@_00CNPNBAHC@?$AA@
  004b8	68 00 00 00 00	 push	 OFFSET ?cmd_pon@@YA_NAAVCCmdLine@@@Z ; cmd_pon
  004bd	68 00 00 00 00	 push	 OFFSET ??_C@_03NHBEKEL@pon?$AA@
  004c2	b9 00 00 00 00	 mov	 ecx, OFFSET ?cmd_intp@@3VCInterpreter@@A ; cmd_intp
  004c7	e8 00 00 00 00	 call	 ?AddCommand@CInterpreter@@QAEXQBDP6A_NAAVCCmdLine@@@Z00@Z ; CInterpreter::AddCommand

; 81   : CMD_REG(poff, "", "switch ROC power off")

  004cc	68 00 00 00 00	 push	 OFFSET ??_C@_0BF@FKKLNFPN@switch?5ROC?5power?5off?$AA@
  004d1	68 00 00 00 00	 push	 OFFSET ??_C@_00CNPNBAHC@?$AA@
  004d6	68 00 00 00 00	 push	 OFFSET ?cmd_poff@@YA_NAAVCCmdLine@@@Z ; cmd_poff
  004db	68 00 00 00 00	 push	 OFFSET ??_C@_04NMLHHEML@poff?$AA@
  004e0	b9 00 00 00 00	 mov	 ecx, OFFSET ?cmd_intp@@3VCInterpreter@@A ; cmd_intp
  004e5	e8 00 00 00 00	 call	 ?AddCommand@CInterpreter@@QAEXQBDP6A_NAAVCCmdLine@@@Z00@Z ; CInterpreter::AddCommand

; 82   : CMD_REG(va, "<mV>", "set VA in mV")

  004ea	68 00 00 00 00	 push	 OFFSET ??_C@_0N@GIAFMJLM@set?5VA?5in?5mV?$AA@
  004ef	68 00 00 00 00	 push	 OFFSET ??_C@_04LNLEDLME@?$DMmV?$DO?$AA@
  004f4	68 00 00 00 00	 push	 OFFSET ?cmd_va@@YA_NAAVCCmdLine@@@Z ; cmd_va
  004f9	68 00 00 00 00	 push	 OFFSET ??_C@_02CMCEGIOJ@va?$AA@
  004fe	b9 00 00 00 00	 mov	 ecx, OFFSET ?cmd_intp@@3VCInterpreter@@A ; cmd_intp
  00503	e8 00 00 00 00	 call	 ?AddCommand@CInterpreter@@QAEXQBDP6A_NAAVCCmdLine@@@Z00@Z ; CInterpreter::AddCommand

; 83   : CMD_REG(vd, "<mV>", "set VD in mV")

  00508	68 00 00 00 00	 push	 OFFSET ??_C@_0N@CAOFMHNI@set?5VD?5in?5mV?$AA@
  0050d	68 00 00 00 00	 push	 OFFSET ??_C@_04LNLEDLME@?$DMmV?$DO?$AA@
  00512	68 00 00 00 00	 push	 OFFSET ?cmd_vd@@YA_NAAVCCmdLine@@@Z ; cmd_vd
  00517	68 00 00 00 00	 push	 OFFSET ??_C@_02FBFDJMKM@vd?$AA@
  0051c	b9 00 00 00 00	 mov	 ecx, OFFSET ?cmd_intp@@3VCInterpreter@@A ; cmd_intp
  00521	e8 00 00 00 00	 call	 ?AddCommand@CInterpreter@@QAEXQBDP6A_NAAVCCmdLine@@@Z00@Z ; CInterpreter::AddCommand

; 84   : CMD_REG(ia, "<mA>", "set IA in mA")

  00526	68 00 00 00 00	 push	 OFFSET ??_C@_0N@BOPPMAIK@set?5IA?5in?5mA?$AA@
  0052b	68 00 00 00 00	 push	 OFFSET ??_C@_04KENNIODB@?$DMmA?$DO?$AA@
  00530	68 00 00 00 00	 push	 OFFSET ?cmd_ia@@YA_NAAVCCmdLine@@@Z ; cmd_ia
  00535	68 00 00 00 00	 push	 OFFSET ??_C@_02DLFOIMKE@ia?$AA@
  0053a	b9 00 00 00 00	 mov	 ecx, OFFSET ?cmd_intp@@3VCInterpreter@@A ; cmd_intp
  0053f	e8 00 00 00 00	 call	 ?AddCommand@CInterpreter@@QAEXQBDP6A_NAAVCCmdLine@@@Z00@Z ; CInterpreter::AddCommand

; 85   : CMD_REG(id, "<mA>", "set ID in mA")

  00544	68 00 00 00 00	 push	 OFFSET ??_C@_0N@FGBPMOOO@set?5ID?5in?5mA?$AA@
  00549	68 00 00 00 00	 push	 OFFSET ??_C@_04KENNIODB@?$DMmA?$DO?$AA@
  0054e	68 00 00 00 00	 push	 OFFSET ?cmd_id@@YA_NAAVCCmdLine@@@Z ; cmd_id
  00553	68 00 00 00 00	 push	 OFFSET ??_C@_02EGCJHIOB@id?$AA@
  00558	b9 00 00 00 00	 mov	 ecx, OFFSET ?cmd_intp@@3VCInterpreter@@A ; cmd_intp
  0055d	e8 00 00 00 00	 call	 ?AddCommand@CInterpreter@@QAEXQBDP6A_NAAVCCmdLine@@@Z00@Z ; CInterpreter::AddCommand

; 86   : CMD_REG(getva, "", "get VA in V")

  00562	68 00 00 00 00	 push	 OFFSET ??_C@_0M@GJNOIJKI@get?5VA?5in?5V?$AA@
  00567	68 00 00 00 00	 push	 OFFSET ??_C@_00CNPNBAHC@?$AA@
  0056c	68 00 00 00 00	 push	 OFFSET ?cmd_getva@@YA_NAAVCCmdLine@@@Z ; cmd_getva
  00571	68 00 00 00 00	 push	 OFFSET ??_C@_05MCNJOAEM@getva?$AA@
  00576	b9 00 00 00 00	 mov	 ecx, OFFSET ?cmd_intp@@3VCInterpreter@@A ; cmd_intp
  0057b	e8 00 00 00 00	 call	 ?AddCommand@CInterpreter@@QAEXQBDP6A_NAAVCCmdLine@@@Z00@Z ; CInterpreter::AddCommand

; 87   : CMD_REG(getvd, "", "get VD in V")

  00580	68 00 00 00 00	 push	 OFFSET ??_C@_0M@DLOGKGAP@get?5VD?5in?5V?$AA@
  00585	68 00 00 00 00	 push	 OFFSET ??_C@_00CNPNBAHC@?$AA@
  0058a	68 00 00 00 00	 push	 OFFSET ?cmd_getvd@@YA_NAAVCCmdLine@@@Z ; cmd_getvd
  0058f	68 00 00 00 00	 push	 OFFSET ??_C@_05LPKOBEAJ@getvd?$AA@
  00594	b9 00 00 00 00	 mov	 ecx, OFFSET ?cmd_intp@@3VCInterpreter@@A ; cmd_intp
  00599	e8 00 00 00 00	 call	 ?AddCommand@CInterpreter@@QAEXQBDP6A_NAAVCCmdLine@@@Z00@Z ; CInterpreter::AddCommand

; 88   : CMD_REG(getia, "", "get IA in mA")

  0059e	68 00 00 00 00	 push	 OFFSET ??_C@_0N@GKEBAMMG@get?5IA?5in?5mA?$AA@
  005a3	68 00 00 00 00	 push	 OFFSET ??_C@_00CNPNBAHC@?$AA@
  005a8	68 00 00 00 00	 push	 OFFSET ?cmd_getia@@YA_NAAVCCmdLine@@@Z ; cmd_getia
  005ad	68 00 00 00 00	 push	 OFFSET ??_C@_05NFKDAEAB@getia?$AA@
  005b2	b9 00 00 00 00	 mov	 ecx, OFFSET ?cmd_intp@@3VCInterpreter@@A ; cmd_intp
  005b7	e8 00 00 00 00	 call	 ?AddCommand@CInterpreter@@QAEXQBDP6A_NAAVCCmdLine@@@Z00@Z ; CInterpreter::AddCommand

; 89   : CMD_REG(getid, "", "get ID in mA")

  005bc	68 00 00 00 00	 push	 OFFSET ??_C@_0N@CCKBACKC@get?5ID?5in?5mA?$AA@
  005c1	68 00 00 00 00	 push	 OFFSET ??_C@_00CNPNBAHC@?$AA@
  005c6	68 00 00 00 00	 push	 OFFSET ?cmd_getid@@YA_NAAVCCmdLine@@@Z ; cmd_getid
  005cb	68 00 00 00 00	 push	 OFFSET ??_C@_05KINEPAEE@getid?$AA@
  005d0	b9 00 00 00 00	 mov	 ecx, OFFSET ?cmd_intp@@3VCInterpreter@@A ; cmd_intp
  005d5	e8 00 00 00 00	 call	 ?AddCommand@CInterpreter@@QAEXQBDP6A_NAAVCCmdLine@@@Z00@Z ; CInterpreter::AddCommand

; 90   : CMD_REG(hvon, "", "switch HV on")

  005da	68 00 00 00 00	 push	 OFFSET ??_C@_0N@JGJOKEIA@switch?5HV?5on?$AA@
  005df	68 00 00 00 00	 push	 OFFSET ??_C@_00CNPNBAHC@?$AA@
  005e4	68 00 00 00 00	 push	 OFFSET ?cmd_hvon@@YA_NAAVCCmdLine@@@Z ; cmd_hvon
  005e9	68 00 00 00 00	 push	 OFFSET ??_C@_04GGDOABBK@hvon?$AA@
  005ee	b9 00 00 00 00	 mov	 ecx, OFFSET ?cmd_intp@@3VCInterpreter@@A ; cmd_intp
  005f3	e8 00 00 00 00	 call	 ?AddCommand@CInterpreter@@QAEXQBDP6A_NAAVCCmdLine@@@Z00@Z ; CInterpreter::AddCommand

; 91   : CMD_REG(hvoff, "", "switch HV off")

  005f8	68 00 00 00 00	 push	 OFFSET ??_C@_0O@NAJKIABN@switch?5HV?5off?$AA@
  005fd	68 00 00 00 00	 push	 OFFSET ??_C@_00CNPNBAHC@?$AA@
  00602	68 00 00 00 00	 push	 OFFSET ?cmd_hvoff@@YA_NAAVCCmdLine@@@Z ; cmd_hvoff
  00607	68 00 00 00 00	 push	 OFFSET ??_C@_05MALAFKOC@hvoff?$AA@
  0060c	b9 00 00 00 00	 mov	 ecx, OFFSET ?cmd_intp@@3VCInterpreter@@A ; cmd_intp
  00611	e8 00 00 00 00	 call	 ?AddCommand@CInterpreter@@QAEXQBDP6A_NAAVCCmdLine@@@Z00@Z ; CInterpreter::AddCommand

; 92   : CMD_REG(reson, "", "activate reset")

  00616	68 00 00 00 00	 push	 OFFSET ??_C@_0P@FFFFJELC@activate?5reset?$AA@
  0061b	68 00 00 00 00	 push	 OFFSET ??_C@_00CNPNBAHC@?$AA@
  00620	68 00 00 00 00	 push	 OFFSET ?cmd_reson@@YA_NAAVCCmdLine@@@Z ; cmd_reson
  00625	68 00 00 00 00	 push	 OFFSET ??_C@_05JIHKMPON@reson?$AA@
  0062a	b9 00 00 00 00	 mov	 ecx, OFFSET ?cmd_intp@@3VCInterpreter@@A ; cmd_intp
  0062f	e8 00 00 00 00	 call	 ?AddCommand@CInterpreter@@QAEXQBDP6A_NAAVCCmdLine@@@Z00@Z ; CInterpreter::AddCommand

; 93   : CMD_REG(resoff, "", "deactivate reset")

  00634	68 00 00 00 00	 push	 OFFSET ??_C@_0BB@IJMEGLI@deactivate?5reset?$AA@
  00639	68 00 00 00 00	 push	 OFFSET ??_C@_00CNPNBAHC@?$AA@
  0063e	68 00 00 00 00	 push	 OFFSET ?cmd_resoff@@YA_NAAVCCmdLine@@@Z ; cmd_resoff
  00643	68 00 00 00 00	 push	 OFFSET ??_C@_06ODJHHJJD@resoff?$AA@
  00648	b9 00 00 00 00	 mov	 ecx, OFFSET ?cmd_intp@@3VCInterpreter@@A ; cmd_intp
  0064d	e8 00 00 00 00	 call	 ?AddCommand@CInterpreter@@QAEXQBDP6A_NAAVCCmdLine@@@Z00@Z ; CInterpreter::AddCommand

; 94   : CMD_REG(status, "", "shows testboard status")

  00652	68 00 00 00 00	 push	 OFFSET ??_C@_0BH@MFDFAINF@shows?5testboard?5status?$AA@
  00657	68 00 00 00 00	 push	 OFFSET ??_C@_00CNPNBAHC@?$AA@
  0065c	68 00 00 00 00	 push	 OFFSET ?cmd_status@@YA_NAAVCCmdLine@@@Z ; cmd_status
  00661	68 00 00 00 00	 push	 OFFSET ??_C@_06DJIHEMFI@status?$AA@
  00666	b9 00 00 00 00	 mov	 ecx, OFFSET ?cmd_intp@@3VCInterpreter@@A ; cmd_intp
  0066b	e8 00 00 00 00	 call	 ?AddCommand@CInterpreter@@QAEXQBDP6A_NAAVCCmdLine@@@Z00@Z ; CInterpreter::AddCommand

; 95   : CMD_REG(rocaddr, "", "set ROC address")

  00670	68 00 00 00 00	 push	 OFFSET ??_C@_0BA@JLPAOFAF@set?5ROC?5address?$AA@
  00675	68 00 00 00 00	 push	 OFFSET ??_C@_00CNPNBAHC@?$AA@
  0067a	68 00 00 00 00	 push	 OFFSET ?cmd_rocaddr@@YA_NAAVCCmdLine@@@Z ; cmd_rocaddr
  0067f	68 00 00 00 00	 push	 OFFSET ??_C@_07MFPHLBKC@rocaddr?$AA@
  00684	b9 00 00 00 00	 mov	 ecx, OFFSET ?cmd_intp@@3VCInterpreter@@A ; cmd_intp
  00689	e8 00 00 00 00	 call	 ?AddCommand@CInterpreter@@QAEXQBDP6A_NAAVCCmdLine@@@Z00@Z ; CInterpreter::AddCommand

; 96   : CMD_REG(d1, "<signal>", "assign signal to D1 output")

  0068e	68 00 00 00 00	 push	 OFFSET ??_C@_0BL@BBMGIJMH@assign?5signal?5to?5D1?5output?$AA@
  00693	68 00 00 00 00	 push	 OFFSET ??_C@_08FNGDAIED@?$DMsignal?$DO?$AA@
  00698	68 00 00 00 00	 push	 OFFSET ?cmd_d1@@YA_NAAVCCmdLine@@@Z ; cmd_d1
  0069d	68 00 00 00 00	 push	 OFFSET ??_C@_02IJDNECKD@d1?$AA@
  006a2	b9 00 00 00 00	 mov	 ecx, OFFSET ?cmd_intp@@3VCInterpreter@@A ; cmd_intp
  006a7	e8 00 00 00 00	 call	 ?AddCommand@CInterpreter@@QAEXQBDP6A_NAAVCCmdLine@@@Z00@Z ; CInterpreter::AddCommand

; 97   : CMD_REG(d2, "<signal>", "assign signal to D2 outout")

  006ac	68 00 00 00 00	 push	 OFFSET ??_C@_0BL@CADBPCML@assign?5signal?5to?5D2?5outout?$AA@
  006b1	68 00 00 00 00	 push	 OFFSET ??_C@_08FNGDAIED@?$DMsignal?$DO?$AA@
  006b6	68 00 00 00 00	 push	 OFFSET ?cmd_d2@@YA_NAAVCCmdLine@@@Z ; cmd_d2
  006bb	68 00 00 00 00	 push	 OFFSET ??_C@_02KCBABBGA@d2?$AA@
  006c0	b9 00 00 00 00	 mov	 ecx, OFFSET ?cmd_intp@@3VCInterpreter@@A ; cmd_intp
  006c5	e8 00 00 00 00	 call	 ?AddCommand@CInterpreter@@QAEXQBDP6A_NAAVCCmdLine@@@Z00@Z ; CInterpreter::AddCommand

; 98   : CMD_REG(a1, "<signal>", "assign analog signal to A1 output")

  006ca	68 00 00 00 00	 push	 OFFSET ??_C@_0CC@NNOAENKG@assign?5analog?5signal?5to?5A1?5outpu@
  006cf	68 00 00 00 00	 push	 OFFSET ??_C@_08FNGDAIED@?$DMsignal?$DO?$AA@
  006d4	68 00 00 00 00	 push	 OFFSET ?cmd_a1@@YA_NAAVCCmdLine@@@Z ; cmd_a1
  006d9	68 00 00 00 00	 push	 OFFSET ??_C@_02IPPGIAEI@a1?$AA@
  006de	b9 00 00 00 00	 mov	 ecx, OFFSET ?cmd_intp@@3VCInterpreter@@A ; cmd_intp
  006e3	e8 00 00 00 00	 call	 ?AddCommand@CInterpreter@@QAEXQBDP6A_NAAVCCmdLine@@@Z00@Z ; CInterpreter::AddCommand

; 99   : CMD_REG(a2, "<signal>", "assign analog signal to A2 outout")

  006e8	68 00 00 00 00	 push	 OFFSET ??_C@_0CC@OMBHDGKK@assign?5analog?5signal?5to?5A2?5outou@
  006ed	68 00 00 00 00	 push	 OFFSET ??_C@_08FNGDAIED@?$DMsignal?$DO?$AA@
  006f2	68 00 00 00 00	 push	 OFFSET ?cmd_a2@@YA_NAAVCCmdLine@@@Z ; cmd_a2
  006f7	68 00 00 00 00	 push	 OFFSET ??_C@_02KENLNDIL@a2?$AA@
  006fc	b9 00 00 00 00	 mov	 ecx, OFFSET ?cmd_intp@@3VCInterpreter@@A ; cmd_intp
  00701	e8 00 00 00 00	 call	 ?AddCommand@CInterpreter@@QAEXQBDP6A_NAAVCCmdLine@@@Z00@Z ; CInterpreter::AddCommand

; 100  : CMD_REG(probeadc, "<signal>", "assign analog signal to ADC")

  00706	68 00 00 00 00	 push	 OFFSET ??_C@_0BM@CLGOGNIP@assign?5analog?5signal?5to?5ADC?$AA@
  0070b	68 00 00 00 00	 push	 OFFSET ??_C@_08FNGDAIED@?$DMsignal?$DO?$AA@
  00710	68 00 00 00 00	 push	 OFFSET ?cmd_probeadc@@YA_NAAVCCmdLine@@@Z ; cmd_probeadc
  00715	68 00 00 00 00	 push	 OFFSET ??_C@_08OMKEBPPH@probeadc?$AA@
  0071a	b9 00 00 00 00	 mov	 ecx, OFFSET ?cmd_intp@@3VCInterpreter@@A ; cmd_intp
  0071f	e8 00 00 00 00	 call	 ?AddCommand@CInterpreter@@QAEXQBDP6A_NAAVCCmdLine@@@Z00@Z ; CInterpreter::AddCommand

; 101  : CMD_REG(pgset, "<addr> <bits> <delay>", "set pattern generator entry")

  00724	68 00 00 00 00	 push	 OFFSET ??_C@_0BM@OPHPCPIF@set?5pattern?5generator?5entry?$AA@
  00729	68 00 00 00 00	 push	 OFFSET ??_C@_0BG@MGCIEMOE@?$DMaddr?$DO?5?$DMbits?$DO?5?$DMdelay?$DO?$AA@
  0072e	68 00 00 00 00	 push	 OFFSET ?cmd_pgset@@YA_NAAVCCmdLine@@@Z ; cmd_pgset
  00733	68 00 00 00 00	 push	 OFFSET ??_C@_05BCMIECIL@pgset?$AA@
  00738	b9 00 00 00 00	 mov	 ecx, OFFSET ?cmd_intp@@3VCInterpreter@@A ; cmd_intp
  0073d	e8 00 00 00 00	 call	 ?AddCommand@CInterpreter@@QAEXQBDP6A_NAAVCCmdLine@@@Z00@Z ; CInterpreter::AddCommand

; 102  : CMD_REG(pgstop, "", "stops pattern generator")

  00742	68 00 00 00 00	 push	 OFFSET ??_C@_0BI@BLBLGOLH@stops?5pattern?5generator?$AA@
  00747	68 00 00 00 00	 push	 OFFSET ??_C@_00CNPNBAHC@?$AA@
  0074c	68 00 00 00 00	 push	 OFFSET ?cmd_pgstop@@YA_NAAVCCmdLine@@@Z ; cmd_pgstop
  00751	68 00 00 00 00	 push	 OFFSET ??_C@_06KNJBJHHH@pgstop?$AA@
  00756	b9 00 00 00 00	 mov	 ecx, OFFSET ?cmd_intp@@3VCInterpreter@@A ; cmd_intp
  0075b	e8 00 00 00 00	 call	 ?AddCommand@CInterpreter@@QAEXQBDP6A_NAAVCCmdLine@@@Z00@Z ; CInterpreter::AddCommand

; 103  : CMD_REG(pgsingle, "", "send single pattern")

  00760	68 00 00 00 00	 push	 OFFSET ??_C@_0BE@ODHEEMOB@send?5single?5pattern?$AA@
  00765	68 00 00 00 00	 push	 OFFSET ??_C@_00CNPNBAHC@?$AA@
  0076a	68 00 00 00 00	 push	 OFFSET ?cmd_pgsingle@@YA_NAAVCCmdLine@@@Z ; cmd_pgsingle
  0076f	68 00 00 00 00	 push	 OFFSET ??_C@_08BILELODC@pgsingle?$AA@
  00774	b9 00 00 00 00	 mov	 ecx, OFFSET ?cmd_intp@@3VCInterpreter@@A ; cmd_intp
  00779	e8 00 00 00 00	 call	 ?AddCommand@CInterpreter@@QAEXQBDP6A_NAAVCCmdLine@@@Z00@Z ; CInterpreter::AddCommand

; 104  : CMD_REG(pgtrig, "", "enable external pattern trigger")

  0077e	68 00 00 00 00	 push	 OFFSET ??_C@_0CA@PFODKJBB@enable?5external?5pattern?5trigger?$AA@
  00783	68 00 00 00 00	 push	 OFFSET ??_C@_00CNPNBAHC@?$AA@
  00788	68 00 00 00 00	 push	 OFFSET ?cmd_pgtrig@@YA_NAAVCCmdLine@@@Z ; cmd_pgtrig
  0078d	68 00 00 00 00	 push	 OFFSET ??_C@_06DLNEOMJP@pgtrig?$AA@
  00792	b9 00 00 00 00	 mov	 ecx, OFFSET ?cmd_intp@@3VCInterpreter@@A ; cmd_intp
  00797	e8 00 00 00 00	 call	 ?AddCommand@CInterpreter@@QAEXQBDP6A_NAAVCCmdLine@@@Z00@Z ; CInterpreter::AddCommand

; 105  : CMD_REG(pgloop, "<period>", "start patterngenerator in loop mode")

  0079c	68 00 00 00 00	 push	 OFFSET ??_C@_0CE@LONLJPPI@start?5patterngenerator?5in?5loop?5m@
  007a1	68 00 00 00 00	 push	 OFFSET ??_C@_08BLLLAMGH@?$DMperiod?$DO?$AA@
  007a6	68 00 00 00 00	 push	 OFFSET ?cmd_pgloop@@YA_NAAVCCmdLine@@@Z ; cmd_pgloop
  007ab	68 00 00 00 00	 push	 OFFSET ??_C@_06MIDJEHLK@pgloop?$AA@
  007b0	b9 00 00 00 00	 mov	 ecx, OFFSET ?cmd_intp@@3VCInterpreter@@A ; cmd_intp
  007b5	e8 00 00 00 00	 call	 ?AddCommand@CInterpreter@@QAEXQBDP6A_NAAVCCmdLine@@@Z00@Z ; CInterpreter::AddCommand

; 106  : 
; 107  : // === DAQ ==================================================================
; 108  : 
; 109  : HELP_CAT("daq")

  007ba	68 00 00 00 00	 push	 OFFSET ??_C@_03BFMOKJBH@daq?$AA@
  007bf	b9 00 00 00 00	 mov	 ecx, OFFSET ?cmd_intp@@3VCInterpreter@@A ; cmd_intp
  007c4	e8 00 00 00 00	 call	 ?AddHelpCategory@CInterpreter@@QAEXQBD@Z ; CInterpreter::AddHelpCategory

; 110  : 
; 111  : CMD_REG(dopen, "<buffer size> [<ch>]", "Open DAQ and allocate memory")

  007c9	68 00 00 00 00	 push	 OFFSET ??_C@_0BN@IDMOMANB@Open?5DAQ?5and?5allocate?5memory?$AA@
  007ce	68 00 00 00 00	 push	 OFFSET ??_C@_0BF@DOBLMENI@?$DMbuffer?5size?$DO?5?$FL?$DMch?$DO?$FN?$AA@
  007d3	68 00 00 00 00	 push	 OFFSET ?cmd_dopen@@YA_NAAVCCmdLine@@@Z ; cmd_dopen
  007d8	68 00 00 00 00	 push	 OFFSET ??_C@_05BIGHBMPC@dopen?$AA@
  007dd	b9 00 00 00 00	 mov	 ecx, OFFSET ?cmd_intp@@3VCInterpreter@@A ; cmd_intp
  007e2	e8 00 00 00 00	 call	 ?AddCommand@CInterpreter@@QAEXQBDP6A_NAAVCCmdLine@@@Z00@Z ; CInterpreter::AddCommand

; 112  : CMD_REG(dclose, "[<channel>]", "Close DAQ")

  007e7	68 00 00 00 00	 push	 OFFSET ??_C@_09FIJCNEFO@Close?5DAQ?$AA@
  007ec	68 00 00 00 00	 push	 OFFSET ??_C@_0M@MCCMCADE@?$FL?$DMchannel?$DO?$FN?$AA@
  007f1	68 00 00 00 00	 push	 OFFSET ?cmd_dclose@@YA_NAAVCCmdLine@@@Z ; cmd_dclose
  007f6	68 00 00 00 00	 push	 OFFSET ??_C@_06OCLAABHB@dclose?$AA@
  007fb	b9 00 00 00 00	 mov	 ecx, OFFSET ?cmd_intp@@3VCInterpreter@@A ; cmd_intp
  00800	e8 00 00 00 00	 call	 ?AddCommand@CInterpreter@@QAEXQBDP6A_NAAVCCmdLine@@@Z00@Z ; CInterpreter::AddCommand

; 113  : CMD_REG(dstart, "[<channel>]", "Enable DAQ")

  00805	68 00 00 00 00	 push	 OFFSET ??_C@_0L@DGPPCOKI@Enable?5DAQ?$AA@
  0080a	68 00 00 00 00	 push	 OFFSET ??_C@_0M@MCCMCADE@?$FL?$DMchannel?$DO?$FN?$AA@
  0080f	68 00 00 00 00	 push	 OFFSET ?cmd_dstart@@YA_NAAVCCmdLine@@@Z ; cmd_dstart
  00814	68 00 00 00 00	 push	 OFFSET ??_C@_06DDCOBLN@dstart?$AA@
  00819	b9 00 00 00 00	 mov	 ecx, OFFSET ?cmd_intp@@3VCInterpreter@@A ; cmd_intp
  0081e	e8 00 00 00 00	 call	 ?AddCommand@CInterpreter@@QAEXQBDP6A_NAAVCCmdLine@@@Z00@Z ; CInterpreter::AddCommand

; 114  : CMD_REG(dstop, "[<channel>]", "Disable DAQ")

  00823	68 00 00 00 00	 push	 OFFSET ??_C@_0M@ELBOMCOM@Disable?5DAQ?$AA@
  00828	68 00 00 00 00	 push	 OFFSET ??_C@_0M@MCCMCADE@?$FL?$DMchannel?$DO?$FN?$AA@
  0082d	68 00 00 00 00	 push	 OFFSET ?cmd_dstop@@YA_NAAVCCmdLine@@@Z ; cmd_dstop
  00832	68 00 00 00 00	 push	 OFFSET ??_C@_05OLMDELCP@dstop?$AA@
  00837	b9 00 00 00 00	 mov	 ecx, OFFSET ?cmd_intp@@3VCInterpreter@@A ; cmd_intp
  0083c	e8 00 00 00 00	 call	 ?AddCommand@CInterpreter@@QAEXQBDP6A_NAAVCCmdLine@@@Z00@Z ; CInterpreter::AddCommand

; 115  : CMD_REG(dsize, "[<channel>]", "Show DAQ buffer fill state")

  00841	68 00 00 00 00	 push	 OFFSET ??_C@_0BL@DOOKMEFD@Show?5DAQ?5buffer?5fill?5state?$AA@
  00846	68 00 00 00 00	 push	 OFFSET ??_C@_0M@MCCMCADE@?$FL?$DMchannel?$DO?$FN?$AA@
  0084b	68 00 00 00 00	 push	 OFFSET ?cmd_dsize@@YA_NAAVCCmdLine@@@Z ; cmd_dsize
  00850	68 00 00 00 00	 push	 OFFSET ??_C@_05GEOIEDOC@dsize?$AA@
  00855	b9 00 00 00 00	 mov	 ecx, OFFSET ?cmd_intp@@3VCInterpreter@@A ; cmd_intp
  0085a	e8 00 00 00 00	 call	 ?AddCommand@CInterpreter@@QAEXQBDP6A_NAAVCCmdLine@@@Z00@Z ; CInterpreter::AddCommand

; 116  : CMD_REG(dread, "[<channel>]", "Read Daq buffer and show as raw data")

  0085f	68 00 00 00 00	 push	 OFFSET ??_C@_0CF@OAMKBFMP@Read?5Daq?5buffer?5and?5show?5as?5raw?5@
  00864	68 00 00 00 00	 push	 OFFSET ??_C@_0M@MCCMCADE@?$FL?$DMchannel?$DO?$FN?$AA@
  00869	68 00 00 00 00	 push	 OFFSET ?cmd_dread@@YA_NAAVCCmdLine@@@Z ; cmd_dread
  0086e	68 00 00 00 00	 push	 OFFSET ??_C@_05BKDGKIDK@dread?$AA@
  00873	b9 00 00 00 00	 mov	 ecx, OFFSET ?cmd_intp@@3VCInterpreter@@A ; cmd_intp
  00878	e8 00 00 00 00	 call	 ?AddCommand@CInterpreter@@QAEXQBDP6A_NAAVCCmdLine@@@Z00@Z ; CInterpreter::AddCommand

; 117  : CMD_REG(dreadr, "[<channel>]", "Read Daq buffer and show as ROC data")

  0087d	68 00 00 00 00	 push	 OFFSET ??_C@_0CF@NCOLGGEJ@Read?5Daq?5buffer?5and?5show?5as?5ROC?5@
  00882	68 00 00 00 00	 push	 OFFSET ??_C@_0M@MCCMCADE@?$FL?$DMchannel?$DO?$FN?$AA@
  00887	68 00 00 00 00	 push	 OFFSET ?cmd_dreadr@@YA_NAAVCCmdLine@@@Z ; cmd_dreadr
  0088c	68 00 00 00 00	 push	 OFFSET ??_C@_06NLBPPEGO@dreadr?$AA@
  00891	b9 00 00 00 00	 mov	 ecx, OFFSET ?cmd_intp@@3VCInterpreter@@A ; cmd_intp
  00896	e8 00 00 00 00	 call	 ?AddCommand@CInterpreter@@QAEXQBDP6A_NAAVCCmdLine@@@Z00@Z ; CInterpreter::AddCommand

; 118  : CMD_REG(dreadm, "[<channel>]", "Read Daq buffer and show as module data")

  0089b	68 00 00 00 00	 push	 OFFSET ??_C@_0CI@NKIAILEF@Read?5Daq?5buffer?5and?5show?5as?5modu@
  008a0	68 00 00 00 00	 push	 OFFSET ??_C@_0M@MCCMCADE@?$FL?$DMchannel?$DO?$FN?$AA@
  008a5	68 00 00 00 00	 push	 OFFSET ?cmd_dreadm@@YA_NAAVCCmdLine@@@Z ; cmd_dreadm
  008aa	68 00 00 00 00	 push	 OFFSET ??_C@_06BGEFPKPA@dreadm?$AA@
  008af	b9 00 00 00 00	 mov	 ecx, OFFSET ?cmd_intp@@3VCInterpreter@@A ; cmd_intp
  008b4	e8 00 00 00 00	 call	 ?AddCommand@CInterpreter@@QAEXQBDP6A_NAAVCCmdLine@@@Z00@Z ; CInterpreter::AddCommand

; 119  : CMD_REG(dreada, "[<channel>]", "Read Daq buffer and show as raw data")

  008b9	68 00 00 00 00	 push	 OFFSET ??_C@_0CF@OAMKBFMP@Read?5Daq?5buffer?5and?5show?5as?5raw?5@
  008be	68 00 00 00 00	 push	 OFFSET ??_C@_0M@MCCMCADE@?$FL?$DMchannel?$DO?$FN?$AA@
  008c3	68 00 00 00 00	 push	 OFFSET ?cmd_dreada@@YA_NAAVCCmdLine@@@Z ; cmd_dreada
  008c8	68 00 00 00 00	 push	 OFFSET ??_C@_06LKPALFPM@dreada?$AA@
  008cd	b9 00 00 00 00	 mov	 ecx, OFFSET ?cmd_intp@@3VCInterpreter@@A ; cmd_intp
  008d2	e8 00 00 00 00	 call	 ?AddCommand@CInterpreter@@QAEXQBDP6A_NAAVCCmdLine@@@Z00@Z ; CInterpreter::AddCommand

; 120  : CMD_REG(dselmod, "", "select deser400 for DAQ channel 0");

  008d7	68 00 00 00 00	 push	 OFFSET ??_C@_0CC@CGGINBEN@select?5deser400?5for?5DAQ?5channel?5@
  008dc	68 00 00 00 00	 push	 OFFSET ??_C@_00CNPNBAHC@?$AA@
  008e1	68 00 00 00 00	 push	 OFFSET ?cmd_dselmod@@YA_NAAVCCmdLine@@@Z ; cmd_dselmod
  008e6	68 00 00 00 00	 push	 OFFSET ??_C@_07JMFBENKE@dselmod?$AA@
  008eb	b9 00 00 00 00	 mov	 ecx, OFFSET ?cmd_intp@@3VCInterpreter@@A ; cmd_intp
  008f0	e8 00 00 00 00	 call	 ?AddCommand@CInterpreter@@QAEXQBDP6A_NAAVCCmdLine@@@Z00@Z ; CInterpreter::AddCommand

; 121  : CMD_REG(dmodres, "", "reset all deser400");

  008f5	68 00 00 00 00	 push	 OFFSET ??_C@_0BD@OPCLDKPO@reset?5all?5deser400?$AA@
  008fa	68 00 00 00 00	 push	 OFFSET ??_C@_00CNPNBAHC@?$AA@
  008ff	68 00 00 00 00	 push	 OFFSET ?cmd_dmodres@@YA_NAAVCCmdLine@@@Z ; cmd_dmodres
  00904	68 00 00 00 00	 push	 OFFSET ??_C@_07DKDFIEBJ@dmodres?$AA@
  00909	b9 00 00 00 00	 mov	 ecx, OFFSET ?cmd_intp@@3VCInterpreter@@A ; cmd_intp
  0090e	e8 00 00 00 00	 call	 ?AddCommand@CInterpreter@@QAEXQBDP6A_NAAVCCmdLine@@@Z00@Z ; CInterpreter::AddCommand

; 122  : CMD_REG(dselroc, "<value>", "select deser160 for DAQ channel 0");

  00913	68 00 00 00 00	 push	 OFFSET ??_C@_0CC@JLNMCDEL@select?5deser160?5for?5DAQ?5channel?5@
  00918	68 00 00 00 00	 push	 OFFSET ??_C@_07LFFIHBO@?$DMvalue?$DO?$AA@
  0091d	68 00 00 00 00	 push	 OFFSET ?cmd_dselroc@@YA_NAAVCCmdLine@@@Z ; cmd_dselroc
  00922	68 00 00 00 00	 push	 OFFSET ??_C@_07NLGKJMKK@dselroc?$AA@
  00927	b9 00 00 00 00	 mov	 ecx, OFFSET ?cmd_intp@@3VCInterpreter@@A ; cmd_intp
  0092c	e8 00 00 00 00	 call	 ?AddCommand@CInterpreter@@QAEXQBDP6A_NAAVCCmdLine@@@Z00@Z ; CInterpreter::AddCommand

; 123  : CMD_REG(dselroca, "<value>", "select adc for channel 0");

  00931	68 00 00 00 00	 push	 OFFSET ??_C@_0BJ@JNNDCAIH@select?5adc?5for?5channel?50?$AA@
  00936	68 00 00 00 00	 push	 OFFSET ??_C@_07LFFIHBO@?$DMvalue?$DO?$AA@
  0093b	68 00 00 00 00	 push	 OFFSET ?cmd_dselroca@@YA_NAAVCCmdLine@@@Z ; cmd_dselroca
  00940	68 00 00 00 00	 push	 OFFSET ??_C@_08EKDOHKIM@dselroca?$AA@
  00945	b9 00 00 00 00	 mov	 ecx, OFFSET ?cmd_intp@@3VCInterpreter@@A ; cmd_intp
  0094a	e8 00 00 00 00	 call	 ?AddCommand@CInterpreter@@QAEXQBDP6A_NAAVCCmdLine@@@Z00@Z ; CInterpreter::AddCommand

; 124  : CMD_REG(dselsim, "<startvalue>", "select data generator for channel 0");

  0094f	68 00 00 00 00	 push	 OFFSET ??_C@_0CE@DIIPMIIG@select?5data?5generator?5for?5channe@
  00954	68 00 00 00 00	 push	 OFFSET ??_C@_0N@PLOHGFBB@?$DMstartvalue?$DO?$AA@
  00959	68 00 00 00 00	 push	 OFFSET ?cmd_dselsim@@YA_NAAVCCmdLine@@@Z ; cmd_dselsim
  0095e	68 00 00 00 00	 push	 OFFSET ??_C@_07PJNIKKPD@dselsim?$AA@
  00963	b9 00 00 00 00	 mov	 ecx, OFFSET ?cmd_intp@@3VCInterpreter@@A ; cmd_intp
  00968	e8 00 00 00 00	 call	 ?AddCommand@CInterpreter@@QAEXQBDP6A_NAAVCCmdLine@@@Z00@Z ; CInterpreter::AddCommand

; 125  : CMD_REG(dseloff, "", "deselect all");

  0096d	68 00 00 00 00	 push	 OFFSET ??_C@_0N@BMFBIFCG@deselect?5all?$AA@
  00972	68 00 00 00 00	 push	 OFFSET ??_C@_00CNPNBAHC@?$AA@
  00977	68 00 00 00 00	 push	 OFFSET ?cmd_dseloff@@YA_NAAVCCmdLine@@@Z ; cmd_dseloff
  0097c	68 00 00 00 00	 push	 OFFSET ??_C@_07LLPNMCC@dseloff?$AA@
  00981	b9 00 00 00 00	 mov	 ecx, OFFSET ?cmd_intp@@3VCInterpreter@@A ; cmd_intp
  00986	e8 00 00 00 00	 call	 ?AddCommand@CInterpreter@@QAEXQBDP6A_NAAVCCmdLine@@@Z00@Z ; CInterpreter::AddCommand

; 126  : 
; 127  : 
; 128  : // =======================================================================
; 129  : //  tbm commands
; 130  : // =======================================================================
; 131  : 
; 132  : CMD_REG(tbmdis, "", "disable TBM")

  0098b	68 00 00 00 00	 push	 OFFSET ??_C@_0M@OHAHKNIP@disable?5TBM?$AA@
  00990	68 00 00 00 00	 push	 OFFSET ??_C@_00CNPNBAHC@?$AA@
  00995	68 00 00 00 00	 push	 OFFSET ?cmd_tbmdis@@YA_NAAVCCmdLine@@@Z ; cmd_tbmdis
  0099a	68 00 00 00 00	 push	 OFFSET ??_C@_06KJHKHDNK@tbmdis?$AA@
  0099f	b9 00 00 00 00	 mov	 ecx, OFFSET ?cmd_intp@@3VCInterpreter@@A ; cmd_intp
  009a4	e8 00 00 00 00	 call	 ?AddCommand@CInterpreter@@QAEXQBDP6A_NAAVCCmdLine@@@Z00@Z ; CInterpreter::AddCommand

; 133  : CMD_REG(tbmsel, "<hub> <port>", "set hub and port address")

  009a9	68 00 00 00 00	 push	 OFFSET ??_C@_0BJ@NAIIJFGE@set?5hub?5and?5port?5address?$AA@
  009ae	68 00 00 00 00	 push	 OFFSET ??_C@_0N@KKHMDFCI@?$DMhub?$DO?5?$DMport?$DO?$AA@
  009b3	68 00 00 00 00	 push	 OFFSET ?cmd_tbmsel@@YA_NAAVCCmdLine@@@Z ; cmd_tbmsel
  009b8	68 00 00 00 00	 push	 OFFSET ??_C@_06KAPEOLAG@tbmsel?$AA@
  009bd	b9 00 00 00 00	 mov	 ecx, OFFSET ?cmd_intp@@3VCInterpreter@@A ; cmd_intp
  009c2	e8 00 00 00 00	 call	 ?AddCommand@CInterpreter@@QAEXQBDP6A_NAAVCCmdLine@@@Z00@Z ; CInterpreter::AddCommand

; 134  : CMD_REG(modsel, "<hub>", "set hub address for module")

  009c7	68 00 00 00 00	 push	 OFFSET ??_C@_0BL@MJBJGHEB@set?5hub?5address?5for?5module?$AA@
  009cc	68 00 00 00 00	 push	 OFFSET ??_C@_05MCLAPBJL@?$DMhub?$DO?$AA@
  009d1	68 00 00 00 00	 push	 OFFSET ?cmd_modsel@@YA_NAAVCCmdLine@@@Z ; cmd_modsel
  009d6	68 00 00 00 00	 push	 OFFSET ??_C@_06ODDMEDLE@modsel?$AA@
  009db	b9 00 00 00 00	 mov	 ecx, OFFSET ?cmd_intp@@3VCInterpreter@@A ; cmd_intp
  009e0	e8 00 00 00 00	 call	 ?AddCommand@CInterpreter@@QAEXQBDP6A_NAAVCCmdLine@@@Z00@Z ; CInterpreter::AddCommand

; 135  : CMD_REG(tbmset, "<reg> <value>", "set TBM register")

  009e5	68 00 00 00 00	 push	 OFFSET ??_C@_0BB@GKAGPJJN@set?5TBM?5register?$AA@
  009ea	68 00 00 00 00	 push	 OFFSET ??_C@_0O@NJJCJFGN@?$DMreg?$DO?5?$DMvalue?$DO?$AA@
  009ef	68 00 00 00 00	 push	 OFFSET ?cmd_tbmset@@YA_NAAVCCmdLine@@@Z ; cmd_tbmset
  009f4	68 00 00 00 00	 push	 OFFSET ??_C@_06CCOPHDFP@tbmset?$AA@
  009f9	b9 00 00 00 00	 mov	 ecx, OFFSET ?cmd_intp@@3VCInterpreter@@A ; cmd_intp
  009fe	e8 00 00 00 00	 call	 ?AddCommand@CInterpreter@@QAEXQBDP6A_NAAVCCmdLine@@@Z00@Z ; CInterpreter::AddCommand

; 136  : 
; 137  : /*
; 138  : CMD_REG(tbmget, "", "")
; 139  : CMD_REG(tbmgetraw, "", "")
; 140  : CMD_REG(tbmregs, "", "")
; 141  : CMD_REG(modscan, "", "")
; 142  : */
; 143  : 
; 144  : 
; 145  : 
; 146  : HELP_CAT("roc")

  00a03	68 00 00 00 00	 push	 OFFSET ??_C@_03BCNGPMIN@roc?$AA@
  00a08	b9 00 00 00 00	 mov	 ecx, OFFSET ?cmd_intp@@3VCInterpreter@@A ; cmd_intp
  00a0d	e8 00 00 00 00	 call	 ?AddHelpCategory@CInterpreter@@QAEXQBD@Z ; CInterpreter::AddHelpCategory

; 147  : 
; 148  : CMD_REG(select, "<addr range>", "set i2c address")

  00a12	68 00 00 00 00	 push	 OFFSET ??_C@_0BA@IEKAGLCL@set?5i2c?5address?$AA@
  00a17	68 00 00 00 00	 push	 OFFSET ??_C@_0N@PGOIAMKG@?$DMaddr?5range?$DO?$AA@
  00a1c	68 00 00 00 00	 push	 OFFSET ?cmd_select@@YA_NAAVCCmdLine@@@Z ; cmd_select
  00a21	68 00 00 00 00	 push	 OFFSET ??_C@_06LGNCCACI@select?$AA@
  00a26	b9 00 00 00 00	 mov	 ecx, OFFSET ?cmd_intp@@3VCInterpreter@@A ; cmd_intp
  00a2b	e8 00 00 00 00	 call	 ?AddCommand@CInterpreter@@QAEXQBDP6A_NAAVCCmdLine@@@Z00@Z ; CInterpreter::AddCommand

; 149  : CMD_REG(dac, "<address> <value>", "set DAC")

  00a30	68 00 00 00 00	 push	 OFFSET ??_C@_07IOIEIBCP@set?5DAC?$AA@
  00a35	68 00 00 00 00	 push	 OFFSET ??_C@_0BC@GPADDOKO@?$DMaddress?$DO?5?$DMvalue?$DO?$AA@
  00a3a	68 00 00 00 00	 push	 OFFSET ?cmd_dac@@YA_NAAVCCmdLine@@@Z ; cmd_dac
  00a3f	68 00 00 00 00	 push	 OFFSET ??_C@_03GNDKNJME@dac?$AA@
  00a44	b9 00 00 00 00	 mov	 ecx, OFFSET ?cmd_intp@@3VCInterpreter@@A ; cmd_intp
  00a49	e8 00 00 00 00	 call	 ?AddCommand@CInterpreter@@QAEXQBDP6A_NAAVCCmdLine@@@Z00@Z ; CInterpreter::AddCommand

; 150  : CMD_REG(vana, "<value>", "set Vana")

  00a4e	68 00 00 00 00	 push	 OFFSET ??_C@_08FNDOFNFB@set?5Vana?$AA@
  00a53	68 00 00 00 00	 push	 OFFSET ??_C@_07LFFIHBO@?$DMvalue?$DO?$AA@
  00a58	68 00 00 00 00	 push	 OFFSET ?cmd_vana@@YA_NAAVCCmdLine@@@Z ; cmd_vana
  00a5d	68 00 00 00 00	 push	 OFFSET ??_C@_04PCHKDBCH@vana?$AA@
  00a62	b9 00 00 00 00	 mov	 ecx, OFFSET ?cmd_intp@@3VCInterpreter@@A ; cmd_intp
  00a67	e8 00 00 00 00	 call	 ?AddCommand@CInterpreter@@QAEXQBDP6A_NAAVCCmdLine@@@Z00@Z ; CInterpreter::AddCommand

; 151  : CMD_REG(vtrim, "<value>", "set Vtrim")

  00a6c	68 00 00 00 00	 push	 OFFSET ??_C@_09HALOOLLI@set?5Vtrim?$AA@
  00a71	68 00 00 00 00	 push	 OFFSET ??_C@_07LFFIHBO@?$DMvalue?$DO?$AA@
  00a76	68 00 00 00 00	 push	 OFFSET ?cmd_vtrim@@YA_NAAVCCmdLine@@@Z ; cmd_vtrim
  00a7b	68 00 00 00 00	 push	 OFFSET ??_C@_05MJHHHLNN@vtrim?$AA@
  00a80	b9 00 00 00 00	 mov	 ecx, OFFSET ?cmd_intp@@3VCInterpreter@@A ; cmd_intp
  00a85	e8 00 00 00 00	 call	 ?AddCommand@CInterpreter@@QAEXQBDP6A_NAAVCCmdLine@@@Z00@Z ; CInterpreter::AddCommand

; 152  : CMD_REG(vthr, "<value>", "set VthrComp")

  00a8a	68 00 00 00 00	 push	 OFFSET ??_C@_0N@ICCFHNBJ@set?5VthrComp?$AA@
  00a8f	68 00 00 00 00	 push	 OFFSET ??_C@_07LFFIHBO@?$DMvalue?$DO?$AA@
  00a94	68 00 00 00 00	 push	 OFFSET ?cmd_vthr@@YA_NAAVCCmdLine@@@Z ; cmd_vthr
  00a99	68 00 00 00 00	 push	 OFFSET ??_C@_04PANPKLKK@vthr?$AA@
  00a9e	b9 00 00 00 00	 mov	 ecx, OFFSET ?cmd_intp@@3VCInterpreter@@A ; cmd_intp
  00aa3	e8 00 00 00 00	 call	 ?AddCommand@CInterpreter@@QAEXQBDP6A_NAAVCCmdLine@@@Z00@Z ; CInterpreter::AddCommand

; 153  : CMD_REG(vcal, "<value>", "set Vcal")

  00aa8	68 00 00 00 00	 push	 OFFSET ??_C@_08EJMFKMKK@set?5Vcal?$AA@
  00aad	68 00 00 00 00	 push	 OFFSET ??_C@_07LFFIHBO@?$DMvalue?$DO?$AA@
  00ab2	68 00 00 00 00	 push	 OFFSET ?cmd_vcal@@YA_NAAVCCmdLine@@@Z ; cmd_vcal
  00ab7	68 00 00 00 00	 push	 OFFSET ??_C@_04OGIBMANM@vcal?$AA@
  00abc	b9 00 00 00 00	 mov	 ecx, OFFSET ?cmd_intp@@3VCInterpreter@@A ; cmd_intp
  00ac1	e8 00 00 00 00	 call	 ?AddCommand@CInterpreter@@QAEXQBDP6A_NAAVCCmdLine@@@Z00@Z ; CInterpreter::AddCommand

; 154  : CMD_REG(wbc, "<value>", "set WBC")

  00ac6	68 00 00 00 00	 push	 OFFSET ??_C@_07MOGOMHAH@set?5WBC?$AA@
  00acb	68 00 00 00 00	 push	 OFFSET ??_C@_07LFFIHBO@?$DMvalue?$DO?$AA@
  00ad0	68 00 00 00 00	 push	 OFFSET ?cmd_wbc@@YA_NAAVCCmdLine@@@Z ; cmd_wbc
  00ad5	68 00 00 00 00	 push	 OFFSET ??_C@_03CNNAJPOM@wbc?$AA@
  00ada	b9 00 00 00 00	 mov	 ecx, OFFSET ?cmd_intp@@3VCInterpreter@@A ; cmd_intp
  00adf	e8 00 00 00 00	 call	 ?AddCommand@CInterpreter@@QAEXQBDP6A_NAAVCCmdLine@@@Z00@Z ; CInterpreter::AddCommand

; 155  : CMD_REG(ctl, "<value>", "set control register")

  00ae4	68 00 00 00 00	 push	 OFFSET ??_C@_0BF@FFGPJKMM@set?5control?5register?$AA@
  00ae9	68 00 00 00 00	 push	 OFFSET ??_C@_07LFFIHBO@?$DMvalue?$DO?$AA@
  00aee	68 00 00 00 00	 push	 OFFSET ?cmd_ctl@@YA_NAAVCCmdLine@@@Z ; cmd_ctl
  00af3	68 00 00 00 00	 push	 OFFSET ??_C@_03GNJIJMCJ@ctl?$AA@
  00af8	b9 00 00 00 00	 mov	 ecx, OFFSET ?cmd_intp@@3VCInterpreter@@A ; cmd_intp
  00afd	e8 00 00 00 00	 call	 ?AddCommand@CInterpreter@@QAEXQBDP6A_NAAVCCmdLine@@@Z00@Z ; CInterpreter::AddCommand

; 156  : CMD_REG(cole, "<range>", "enable column")

  00b02	68 00 00 00 00	 push	 OFFSET ??_C@_0O@LFJHMDAA@enable?5column?$AA@
  00b07	68 00 00 00 00	 push	 OFFSET ??_C@_07HPMKGPHJ@?$DMrange?$DO?$AA@
  00b0c	68 00 00 00 00	 push	 OFFSET ?cmd_cole@@YA_NAAVCCmdLine@@@Z ; cmd_cole
  00b11	68 00 00 00 00	 push	 OFFSET ??_C@_04NNENEPIM@cole?$AA@
  00b16	b9 00 00 00 00	 mov	 ecx, OFFSET ?cmd_intp@@3VCInterpreter@@A ; cmd_intp
  00b1b	e8 00 00 00 00	 call	 ?AddCommand@CInterpreter@@QAEXQBDP6A_NAAVCCmdLine@@@Z00@Z ; CInterpreter::AddCommand

; 157  : CMD_REG(cold, "<range>", "disable columns")

  00b20	68 00 00 00 00	 push	 OFFSET ??_C@_0BA@EGACNBJH@disable?5columns?$AA@
  00b25	68 00 00 00 00	 push	 OFFSET ??_C@_07HPMKGPHJ@?$DMrange?$DO?$AA@
  00b2a	68 00 00 00 00	 push	 OFFSET ?cmd_cold@@YA_NAAVCCmdLine@@@Z ; cmd_cold
  00b2f	68 00 00 00 00	 push	 OFFSET ??_C@_04MEFGHOMN@cold?$AA@
  00b34	b9 00 00 00 00	 mov	 ecx, OFFSET ?cmd_intp@@3VCInterpreter@@A ; cmd_intp
  00b39	e8 00 00 00 00	 call	 ?AddCommand@CInterpreter@@QAEXQBDP6A_NAAVCCmdLine@@@Z00@Z ; CInterpreter::AddCommand

; 158  : CMD_REG(pixe, "<range> <range> <value>", "trim pixel")

  00b3e	68 00 00 00 00	 push	 OFFSET ??_C@_0L@OKHDDMCA@trim?5pixel?$AA@
  00b43	68 00 00 00 00	 push	 OFFSET ??_C@_0BI@LCFMAPIA@?$DMrange?$DO?5?$DMrange?$DO?5?$DMvalue?$DO?$AA@
  00b48	68 00 00 00 00	 push	 OFFSET ?cmd_pixe@@YA_NAAVCCmdLine@@@Z ; cmd_pixe
  00b4d	68 00 00 00 00	 push	 OFFSET ??_C@_04MEEJPGKO@pixe?$AA@
  00b52	b9 00 00 00 00	 mov	 ecx, OFFSET ?cmd_intp@@3VCInterpreter@@A ; cmd_intp
  00b57	e8 00 00 00 00	 call	 ?AddCommand@CInterpreter@@QAEXQBDP6A_NAAVCCmdLine@@@Z00@Z ; CInterpreter::AddCommand

; 159  : CMD_REG(pixd, "<range> <range>", "kill pixel")

  00b5c	68 00 00 00 00	 push	 OFFSET ??_C@_0L@IOAODDOD@kill?5pixel?$AA@
  00b61	68 00 00 00 00	 push	 OFFSET ??_C@_0BA@GCPGDBDH@?$DMrange?$DO?5?$DMrange?$DO?$AA@
  00b66	68 00 00 00 00	 push	 OFFSET ?cmd_pixd@@YA_NAAVCCmdLine@@@Z ; cmd_pixd
  00b6b	68 00 00 00 00	 push	 OFFSET ??_C@_04NNFCMHOP@pixd?$AA@
  00b70	b9 00 00 00 00	 mov	 ecx, OFFSET ?cmd_intp@@3VCInterpreter@@A ; cmd_intp
  00b75	e8 00 00 00 00	 call	 ?AddCommand@CInterpreter@@QAEXQBDP6A_NAAVCCmdLine@@@Z00@Z ; CInterpreter::AddCommand

; 160  : CMD_REG(cal, "<range> <range>", "calibrate pixel")

  00b7a	68 00 00 00 00	 push	 OFFSET ??_C@_0BA@MHGCBDPJ@calibrate?5pixel?$AA@
  00b7f	68 00 00 00 00	 push	 OFFSET ??_C@_0BA@GCPGDBDH@?$DMrange?$DO?5?$DMrange?$DO?$AA@
  00b84	68 00 00 00 00	 push	 OFFSET ?cmd_cal@@YA_NAAVCCmdLine@@@Z ; cmd_cal
  00b89	68 00 00 00 00	 push	 OFFSET ??_C@_03HHHFPNLC@cal?$AA@
  00b8e	b9 00 00 00 00	 mov	 ecx, OFFSET ?cmd_intp@@3VCInterpreter@@A ; cmd_intp
  00b93	e8 00 00 00 00	 call	 ?AddCommand@CInterpreter@@QAEXQBDP6A_NAAVCCmdLine@@@Z00@Z ; CInterpreter::AddCommand

; 161  : CMD_REG(cals, "<range> <range>", "sensor calibrate pixel")

  00b98	68 00 00 00 00	 push	 OFFSET ??_C@_0BH@DKBICDFN@sensor?5calibrate?5pixel?$AA@
  00b9d	68 00 00 00 00	 push	 OFFSET ??_C@_0BA@GCPGDBDH@?$DMrange?$DO?5?$DMrange?$DO?$AA@
  00ba2	68 00 00 00 00	 push	 OFFSET ?cmd_cals@@YA_NAAVCCmdLine@@@Z ; cmd_cals
  00ba7	68 00 00 00 00	 push	 OFFSET ??_C@_04CBAKINGI@cals?$AA@
  00bac	b9 00 00 00 00	 mov	 ecx, OFFSET ?cmd_intp@@3VCInterpreter@@A ; cmd_intp
  00bb1	e8 00 00 00 00	 call	 ?AddCommand@CInterpreter@@QAEXQBDP6A_NAAVCCmdLine@@@Z00@Z ; CInterpreter::AddCommand

; 162  : CMD_REG(cald, "", "clear calibrate")

  00bb6	68 00 00 00 00	 push	 OFFSET ??_C@_0BA@HHJEFHFL@clear?5calibrate?$AA@
  00bbb	68 00 00 00 00	 push	 OFFSET ??_C@_00CNPNBAHC@?$AA@
  00bc0	68 00 00 00 00	 push	 OFFSET ?cmd_cald@@YA_NAAVCCmdLine@@@Z ; cmd_cald
  00bc5	68 00 00 00 00	 push	 OFFSET ??_C@_04CEIJAJPO@cald?$AA@
  00bca	b9 00 00 00 00	 mov	 ecx, OFFSET ?cmd_intp@@3VCInterpreter@@A ; cmd_intp
  00bcf	e8 00 00 00 00	 call	 ?AddCommand@CInterpreter@@QAEXQBDP6A_NAAVCCmdLine@@@Z00@Z ; CInterpreter::AddCommand

; 163  : CMD_REG(mask, "", "mask all pixel and cols")

  00bd4	68 00 00 00 00	 push	 OFFSET ??_C@_0BI@ONJKCAI@mask?5all?5pixel?5and?5cols?$AA@
  00bd9	68 00 00 00 00	 push	 OFFSET ??_C@_00CNPNBAHC@?$AA@
  00bde	68 00 00 00 00	 push	 OFFSET ?cmd_mask@@YA_NAAVCCmdLine@@@Z ; cmd_mask
  00be3	68 00 00 00 00	 push	 OFFSET ??_C@_04LFLEPBN@mask?$AA@
  00be8	b9 00 00 00 00	 mov	 ecx, OFFSET ?cmd_intp@@3VCInterpreter@@A ; cmd_intp
  00bed	e8 00 00 00 00	 call	 ?AddCommand@CInterpreter@@QAEXQBDP6A_NAAVCCmdLine@@@Z00@Z ; CInterpreter::AddCommand

; 164  : 
; 165  : // =======================================================================
; 166  : //  i2c testboard commands
; 167  : // =======================================================================
; 168  : 
; 169  : CMD_REG(lldw, "<address> <value>", "lld write")

  00bf2	68 00 00 00 00	 push	 OFFSET ??_C@_09GOIMPPCL@lld?5write?$AA@
  00bf7	68 00 00 00 00	 push	 OFFSET ??_C@_0BC@GPADDOKO@?$DMaddress?$DO?5?$DMvalue?$DO?$AA@
  00bfc	68 00 00 00 00	 push	 OFFSET ?cmd_lldw@@YA_NAAVCCmdLine@@@Z ; cmd_lldw
  00c01	68 00 00 00 00	 push	 OFFSET ??_C@_04DLEPFGNI@lldw?$AA@
  00c06	b9 00 00 00 00	 mov	 ecx, OFFSET ?cmd_intp@@3VCInterpreter@@A ; cmd_intp
  00c0b	e8 00 00 00 00	 call	 ?AddCommand@CInterpreter@@QAEXQBDP6A_NAAVCCmdLine@@@Z00@Z ; CInterpreter::AddCommand

; 170  : CMD_REG(lldr, "<address>", "lld read")

  00c10	68 00 00 00 00	 push	 OFFSET ??_C@_08JLNOPKPP@lld?5read?$AA@
  00c15	68 00 00 00 00	 push	 OFFSET ??_C@_09HHDKDAJO@?$DMaddress?$DO?$AA@
  00c1a	68 00 00 00 00	 push	 OFFSET ?cmd_lldr@@YA_NAAVCCmdLine@@@Z ; cmd_lldr
  00c1f	68 00 00 00 00	 push	 OFFSET ??_C@_04EGDIKCJN@lldr?$AA@
  00c24	b9 00 00 00 00	 mov	 ecx, OFFSET ?cmd_intp@@3VCInterpreter@@A ; cmd_intp
  00c29	e8 00 00 00 00	 call	 ?AddCommand@CInterpreter@@QAEXQBDP6A_NAAVCCmdLine@@@Z00@Z ; CInterpreter::AddCommand

; 171  : 
; 172  : // =======================================================================
; 173  : //  Temperature commands
; 174  : // =======================================================================
; 175  : CMD_REG(gettemp, "", "Read RTD on the HDI")

  00c2e	68 00 00 00 00	 push	 OFFSET ??_C@_0BE@FHOKBDLP@Read?5RTD?5on?5the?5HDI?$AA@
  00c33	68 00 00 00 00	 push	 OFFSET ??_C@_00CNPNBAHC@?$AA@
  00c38	68 00 00 00 00	 push	 OFFSET ?cmd_gettemp@@YA_NAAVCCmdLine@@@Z ; cmd_gettemp
  00c3d	68 00 00 00 00	 push	 OFFSET ??_C@_07GGFEMFBK@gettemp?$AA@
  00c42	b9 00 00 00 00	 mov	 ecx, OFFSET ?cmd_intp@@3VCInterpreter@@A ; cmd_intp
  00c47	e8 00 00 00 00	 call	 ?AddCommand@CInterpreter@@QAEXQBDP6A_NAAVCCmdLine@@@Z00@Z ; CInterpreter::AddCommand
; File c:\users\erich\documents\college\dtb_project\psi46test-master\psi46test-master\cmd_wafertest.h

; 20   : HELP_CAT("test")

  00c4c	68 00 00 00 00	 push	 OFFSET ??_C@_04CEJDCDCH@test?$AA@
  00c51	b9 00 00 00 00	 mov	 ecx, OFFSET ?cmd_intp@@3VCInterpreter@@A ; cmd_intp
  00c56	e8 00 00 00 00	 call	 ?AddHelpCategory@CInterpreter@@QAEXQBD@Z ; CInterpreter::AddHelpCategory

; 21   : CMD_REG(roctype, "ana|dig", "choose ROC type for test")

  00c5b	68 00 00 00 00	 push	 OFFSET ??_C@_0BJ@PKLIFJML@choose?5ROC?5type?5for?5test?$AA@
  00c60	68 00 00 00 00	 push	 OFFSET ??_C@_07HLGBALKB@ana?$HMdig?$AA@
  00c65	68 00 00 00 00	 push	 OFFSET ?cmd_roctype@@YA_NAAVCCmdLine@@@Z ; cmd_roctype
  00c6a	68 00 00 00 00	 push	 OFFSET ??_C@_07NBCIKJCI@roctype?$AA@
  00c6f	b9 00 00 00 00	 mov	 ecx, OFFSET ?cmd_intp@@3VCInterpreter@@A ; cmd_intp
  00c74	e8 00 00 00 00	 call	 ?AddCommand@CInterpreter@@QAEXQBDP6A_NAAVCCmdLine@@@Z00@Z ; CInterpreter::AddCommand

; 22   : CMD_REG(pr, "<command>", "send command to prober")

  00c79	68 00 00 00 00	 push	 OFFSET ??_C@_0BH@ILPOGPCN@send?5command?5to?5prober?$AA@
  00c7e	68 00 00 00 00	 push	 OFFSET ??_C@_09CNCEGNKE@?$DMcommand?$DO?$AA@
  00c83	68 00 00 00 00	 push	 OFFSET ?cmd_pr@@YA_NAAVCCmdLine@@@Z ; cmd_pr
  00c88	68 00 00 00 00	 push	 OFFSET ??_C@_02EJEGFFMJ@pr?$AA@
  00c8d	b9 00 00 00 00	 mov	 ecx, OFFSET ?cmd_intp@@3VCInterpreter@@A ; cmd_intp
  00c92	e8 00 00 00 00	 call	 ?AddCommand@CInterpreter@@QAEXQBDP6A_NAAVCCmdLine@@@Z00@Z ; CInterpreter::AddCommand

; 23   : CMD_REG(sep, "", "prober z-axis separation")

  00c97	68 00 00 00 00	 push	 OFFSET ??_C@_0BJ@JJOAHGHO@prober?5z?9axis?5separation?$AA@
  00c9c	68 00 00 00 00	 push	 OFFSET ??_C@_00CNPNBAHC@?$AA@
  00ca1	68 00 00 00 00	 push	 OFFSET ?cmd_sep@@YA_NAAVCCmdLine@@@Z ; cmd_sep
  00ca6	68 00 00 00 00	 push	 OFFSET ??_C@_03MGBCFPKM@sep?$AA@
  00cab	b9 00 00 00 00	 mov	 ecx, OFFSET ?cmd_intp@@3VCInterpreter@@A ; cmd_intp
  00cb0	e8 00 00 00 00	 call	 ?AddCommand@CInterpreter@@QAEXQBDP6A_NAAVCCmdLine@@@Z00@Z ; CInterpreter::AddCommand

; 24   : CMD_REG(contact, "", "prober z-axis contact")

  00cb5	68 00 00 00 00	 push	 OFFSET ??_C@_0BG@FJEKPLJM@prober?5z?9axis?5contact?$AA@
  00cba	68 00 00 00 00	 push	 OFFSET ??_C@_00CNPNBAHC@?$AA@
  00cbf	68 00 00 00 00	 push	 OFFSET ?cmd_contact@@YA_NAAVCCmdLine@@@Z ; cmd_contact
  00cc4	68 00 00 00 00	 push	 OFFSET ??_C@_07FLDMKAK@contact?$AA@
  00cc9	b9 00 00 00 00	 mov	 ecx, OFFSET ?cmd_intp@@3VCInterpreter@@A ; cmd_intp
  00cce	e8 00 00 00 00	 call	 ?AddCommand@CInterpreter@@QAEXQBDP6A_NAAVCCmdLine@@@Z00@Z ; CInterpreter::AddCommand

; 25   : CMD_REG(test, "<chip id>", "run chip test")

  00cd3	68 00 00 00 00	 push	 OFFSET ??_C@_0O@CBCENHAB@run?5chip?5test?$AA@
  00cd8	68 00 00 00 00	 push	 OFFSET ??_C@_09JEKCBIKL@?$DMchip?5id?$DO?$AA@
  00cdd	68 00 00 00 00	 push	 OFFSET ?cmd_test@@YA_NAAVCCmdLine@@@Z ; cmd_test
  00ce2	68 00 00 00 00	 push	 OFFSET ??_C@_04CEJDCDCH@test?$AA@
  00ce7	b9 00 00 00 00	 mov	 ecx, OFFSET ?cmd_intp@@3VCInterpreter@@A ; cmd_intp
  00cec	e8 00 00 00 00	 call	 ?AddCommand@CInterpreter@@QAEXQBDP6A_NAAVCCmdLine@@@Z00@Z ; CInterpreter::AddCommand

; 26   : CMD_REG(chippos, "<ABCD>", "move to chip A, B, C or D")

  00cf1	68 00 00 00 00	 push	 OFFSET ??_C@_0BK@GJLFMLID@move?5to?5chip?5A?0?5B?0?5C?5or?5D?$AA@
  00cf6	68 00 00 00 00	 push	 OFFSET ??_C@_06FEJAPEPF@?$DMABCD?$DO?$AA@
  00cfb	68 00 00 00 00	 push	 OFFSET ?cmd_chippos@@YA_NAAVCCmdLine@@@Z ; cmd_chippos
  00d00	68 00 00 00 00	 push	 OFFSET ??_C@_07IGGPDNKF@chippos?$AA@
  00d05	b9 00 00 00 00	 mov	 ecx, OFFSET ?cmd_intp@@3VCInterpreter@@A ; cmd_intp
  00d0a	e8 00 00 00 00	 call	 ?AddCommand@CInterpreter@@QAEXQBDP6A_NAAVCCmdLine@@@Z00@Z ; CInterpreter::AddCommand

; 27   : CMD_REG(go, "init|cont", "start wafer test (press <cr> to stop)")

  00d0f	68 00 00 00 00	 push	 OFFSET ??_C@_0CG@LHCMJAFK@start?5wafer?5test?5?$CIpress?5?$DMcr?$DO?5to?5@
  00d14	68 00 00 00 00	 push	 OFFSET ??_C@_09LKIINAAH@init?$HMcont?$AA@
  00d19	68 00 00 00 00	 push	 OFFSET ?cmd_go@@YA_NAAVCCmdLine@@@Z ; cmd_go
  00d1e	68 00 00 00 00	 push	 OFFSET ??_C@_02KPEDIMCA@go?$AA@
  00d23	b9 00 00 00 00	 mov	 ecx, OFFSET ?cmd_intp@@3VCInterpreter@@A ; cmd_intp
  00d28	e8 00 00 00 00	 call	 ?AddCommand@CInterpreter@@QAEXQBDP6A_NAAVCCmdLine@@@Z00@Z ; CInterpreter::AddCommand

; 28   : CMD_REG(first, "", "go to first die and clear wafer map")

  00d2d	68 00 00 00 00	 push	 OFFSET ??_C@_0CE@JKCOHBHD@go?5to?5first?5die?5and?5clear?5wafer?5@
  00d32	68 00 00 00 00	 push	 OFFSET ??_C@_00CNPNBAHC@?$AA@
  00d37	68 00 00 00 00	 push	 OFFSET ?cmd_first@@YA_NAAVCCmdLine@@@Z ; cmd_first
  00d3c	68 00 00 00 00	 push	 OFFSET ??_C@_05NIGAKFML@first?$AA@
  00d41	b9 00 00 00 00	 mov	 ecx, OFFSET ?cmd_intp@@3VCInterpreter@@A ; cmd_intp
  00d46	e8 00 00 00 00	 call	 ?AddCommand@CInterpreter@@QAEXQBDP6A_NAAVCCmdLine@@@Z00@Z ; CInterpreter::AddCommand

; 29   : CMD_REG(next, "", "go to next die")

  00d4b	68 00 00 00 00	 push	 OFFSET ??_C@_0P@FKIOBIAB@go?5to?5next?5die?$AA@
  00d50	68 00 00 00 00	 push	 OFFSET ??_C@_00CNPNBAHC@?$AA@
  00d55	68 00 00 00 00	 push	 OFFSET ?cmd_next@@YA_NAAVCCmdLine@@@Z ; cmd_next
  00d5a	68 00 00 00 00	 push	 OFFSET ??_C@_04CJGEDOF@next?$AA@
  00d5f	b9 00 00 00 00	 mov	 ecx, OFFSET ?cmd_intp@@3VCInterpreter@@A ; cmd_intp
  00d64	e8 00 00 00 00	 call	 ?AddCommand@CInterpreter@@QAEXQBDP6A_NAAVCCmdLine@@@Z00@Z ; CInterpreter::AddCommand

; 30   : CMD_REG(goto, "", "go to specified die")

  00d69	68 00 00 00 00	 push	 OFFSET ??_C@_0BE@JLBNNIIN@go?5to?5specified?5die?$AA@
  00d6e	68 00 00 00 00	 push	 OFFSET ??_C@_00CNPNBAHC@?$AA@
  00d73	68 00 00 00 00	 push	 OFFSET ?cmd_goto@@YA_NAAVCCmdLine@@@Z ; cmd_goto
  00d78	68 00 00 00 00	 push	 OFFSET ??_C@_04MABHPDAO@goto?$AA@
  00d7d	b9 00 00 00 00	 mov	 ecx, OFFSET ?cmd_intp@@3VCInterpreter@@A ; cmd_intp
  00d82	e8 00 00 00 00	 call	 ?AddCommand@CInterpreter@@QAEXQBDP6A_NAAVCCmdLine@@@Z00@Z ; CInterpreter::AddCommand
; File c:\users\erich\documents\college\dtb_project\psi46test-master\psi46test-master\cmd_analyzer.h

; 17   : HELP_CAT("ext")

  00d87	68 00 00 00 00	 push	 OFFSET ??_C@_03MDPCKCMI@ext?$AA@
  00d8c	b9 00 00 00 00	 mov	 ecx, OFFSET ?cmd_intp@@3VCInterpreter@@A ; cmd_intp
  00d91	e8 00 00 00 00	 call	 ?AddHelpCategory@CInterpreter@@QAEXQBD@Z ; CInterpreter::AddHelpCategory

; 18   : 
; 19   : CMD_REG(showclk, "", "")

  00d96	68 00 00 00 00	 push	 OFFSET ??_C@_00CNPNBAHC@?$AA@
  00d9b	68 00 00 00 00	 push	 OFFSET ??_C@_00CNPNBAHC@?$AA@
  00da0	68 00 00 00 00	 push	 OFFSET ?cmd_showclk@@YA_NAAVCCmdLine@@@Z ; cmd_showclk
  00da5	68 00 00 00 00	 push	 OFFSET ??_C@_07FMFMONPC@showclk?$AA@
  00daa	b9 00 00 00 00	 mov	 ecx, OFFSET ?cmd_intp@@3VCInterpreter@@A ; cmd_intp
  00daf	e8 00 00 00 00	 call	 ?AddCommand@CInterpreter@@QAEXQBDP6A_NAAVCCmdLine@@@Z00@Z ; CInterpreter::AddCommand

; 20   : CMD_REG(showctr, "", "")

  00db4	68 00 00 00 00	 push	 OFFSET ??_C@_00CNPNBAHC@?$AA@
  00db9	68 00 00 00 00	 push	 OFFSET ??_C@_00CNPNBAHC@?$AA@
  00dbe	68 00 00 00 00	 push	 OFFSET ?cmd_showctr@@YA_NAAVCCmdLine@@@Z ; cmd_showctr
  00dc3	68 00 00 00 00	 push	 OFFSET ??_C@_07NFGJLGCC@showctr?$AA@
  00dc8	b9 00 00 00 00	 mov	 ecx, OFFSET ?cmd_intp@@3VCInterpreter@@A ; cmd_intp
  00dcd	e8 00 00 00 00	 call	 ?AddCommand@CInterpreter@@QAEXQBDP6A_NAAVCCmdLine@@@Z00@Z ; CInterpreter::AddCommand

; 21   : CMD_REG(showsda, "", "")

  00dd2	68 00 00 00 00	 push	 OFFSET ??_C@_00CNPNBAHC@?$AA@
  00dd7	68 00 00 00 00	 push	 OFFSET ??_C@_00CNPNBAHC@?$AA@
  00ddc	68 00 00 00 00	 push	 OFFSET ?cmd_showsda@@YA_NAAVCCmdLine@@@Z ; cmd_showsda
  00de1	68 00 00 00 00	 push	 OFFSET ??_C@_07PILJADFP@showsda?$AA@
  00de6	b9 00 00 00 00	 mov	 ecx, OFFSET ?cmd_intp@@3VCInterpreter@@A ; cmd_intp
  00deb	e8 00 00 00 00	 call	 ?AddCommand@CInterpreter@@QAEXQBDP6A_NAAVCCmdLine@@@Z00@Z ; CInterpreter::AddCommand

; 22   : CMD_REG(decoding, "", "")

  00df0	68 00 00 00 00	 push	 OFFSET ??_C@_00CNPNBAHC@?$AA@
  00df5	68 00 00 00 00	 push	 OFFSET ??_C@_00CNPNBAHC@?$AA@
  00dfa	68 00 00 00 00	 push	 OFFSET ?cmd_decoding@@YA_NAAVCCmdLine@@@Z ; cmd_decoding
  00dff	68 00 00 00 00	 push	 OFFSET ??_C@_08IBOHAMJP@decoding?$AA@
  00e04	b9 00 00 00 00	 mov	 ecx, OFFSET ?cmd_intp@@3VCInterpreter@@A ; cmd_intp
  00e09	e8 00 00 00 00	 call	 ?AddCommand@CInterpreter@@QAEXQBDP6A_NAAVCCmdLine@@@Z00@Z ; CInterpreter::AddCommand

; 23   : 
; 24   : CMD_REG(showrocdata, "", "")

  00e0e	68 00 00 00 00	 push	 OFFSET ??_C@_00CNPNBAHC@?$AA@
  00e13	68 00 00 00 00	 push	 OFFSET ??_C@_00CNPNBAHC@?$AA@
  00e18	68 00 00 00 00	 push	 OFFSET ?cmd_showrocdata@@YA_NAAVCCmdLine@@@Z ; cmd_showrocdata
  00e1d	68 00 00 00 00	 push	 OFFSET ??_C@_0M@FEBKOAJM@showrocdata?$AA@
  00e22	b9 00 00 00 00	 mov	 ecx, OFFSET ?cmd_intp@@3VCInterpreter@@A ; cmd_intp
  00e27	e8 00 00 00 00	 call	 ?AddCommand@CInterpreter@@QAEXQBDP6A_NAAVCCmdLine@@@Z00@Z ; CInterpreter::AddCommand

; 25   : 
; 26   : // =======================================================================
; 27   : //  experimential ROC test commands
; 28   : // =======================================================================
; 29   : 
; 30   : CMD_REG(vectortest, "<length>", "send/receive a vector")

  00e2c	68 00 00 00 00	 push	 OFFSET ??_C@_0BG@PBGDOLGP@send?1receive?5a?5vector?$AA@
  00e31	68 00 00 00 00	 push	 OFFSET ??_C@_08HFIJHNHI@?$DMlength?$DO?$AA@
  00e36	68 00 00 00 00	 push	 OFFSET ?cmd_vectortest@@YA_NAAVCCmdLine@@@Z ; cmd_vectortest
  00e3b	68 00 00 00 00	 push	 OFFSET ??_C@_0L@NOIPIAJP@vectortest?$AA@
  00e40	b9 00 00 00 00	 mov	 ecx, OFFSET ?cmd_intp@@3VCInterpreter@@A ; cmd_intp
  00e45	e8 00 00 00 00	 call	 ?AddCommand@CInterpreter@@QAEXQBDP6A_NAAVCCmdLine@@@Z00@Z ; CInterpreter::AddCommand

; 31   : CMD_REG(daqtest, "", "test DAQ read function")

  00e4a	68 00 00 00 00	 push	 OFFSET ??_C@_0BH@JLJMDOGN@test?5DAQ?5read?5function?$AA@
  00e4f	68 00 00 00 00	 push	 OFFSET ??_C@_00CNPNBAHC@?$AA@
  00e54	68 00 00 00 00	 push	 OFFSET ?cmd_daqtest@@YA_NAAVCCmdLine@@@Z ; cmd_daqtest
  00e59	68 00 00 00 00	 push	 OFFSET ??_C@_07DOINDMCH@daqtest?$AA@
  00e5e	b9 00 00 00 00	 mov	 ecx, OFFSET ?cmd_intp@@3VCInterpreter@@A ; cmd_intp
  00e63	e8 00 00 00 00	 call	 ?AddCommand@CInterpreter@@QAEXQBDP6A_NAAVCCmdLine@@@Z00@Z ; CInterpreter::AddCommand

; 32   : CMD_REG(daqtest2, "", "test DAQ read function in continous mode")

  00e68	68 00 00 00 00	 push	 OFFSET ??_C@_0CJ@OPPMLNKG@test?5DAQ?5read?5function?5in?5contin@
  00e6d	68 00 00 00 00	 push	 OFFSET ??_C@_00CNPNBAHC@?$AA@
  00e72	68 00 00 00 00	 push	 OFFSET ?cmd_daqtest2@@YA_NAAVCCmdLine@@@Z ; cmd_daqtest2
  00e77	68 00 00 00 00	 push	 OFFSET ??_C@_08EIEEGMCG@daqtest2?$AA@
  00e7c	b9 00 00 00 00	 mov	 ecx, OFFSET ?cmd_intp@@3VCInterpreter@@A ; cmd_intp
  00e81	e8 00 00 00 00	 call	 ?AddCommand@CInterpreter@@QAEXQBDP6A_NAAVCCmdLine@@@Z00@Z ; CInterpreter::AddCommand

; 33   : CMD_REG(daqreadm, "", "read, decode and list continous data stream from module")

  00e86	68 00 00 00 00	 push	 OFFSET ??_C@_0DI@CKEODELC@read?0?5decode?5and?5list?5continous?5@
  00e8b	68 00 00 00 00	 push	 OFFSET ??_C@_00CNPNBAHC@?$AA@
  00e90	68 00 00 00 00	 push	 OFFSET ?cmd_daqreadm@@YA_NAAVCCmdLine@@@Z ; cmd_daqreadm
  00e95	68 00 00 00 00	 push	 OFFSET ??_C@_08EFAIPCME@daqreadm?$AA@
  00e9a	b9 00 00 00 00	 mov	 ecx, OFFSET ?cmd_intp@@3VCInterpreter@@A ; cmd_intp
  00e9f	e8 00 00 00 00	 call	 ?AddCommand@CInterpreter@@QAEXQBDP6A_NAAVCCmdLine@@@Z00@Z ; CInterpreter::AddCommand

; 34   : 
; 35   : CMD_REG(analyze, "", "test analyzer chain")

  00ea4	68 00 00 00 00	 push	 OFFSET ??_C@_0BE@OCIALKL@test?5analyzer?5chain?$AA@
  00ea9	68 00 00 00 00	 push	 OFFSET ??_C@_00CNPNBAHC@?$AA@
  00eae	68 00 00 00 00	 push	 OFFSET ?cmd_analyze@@YA_NAAVCCmdLine@@@Z ; cmd_analyze
  00eb3	68 00 00 00 00	 push	 OFFSET ??_C@_07JFKEGMMK@analyze?$AA@
  00eb8	b9 00 00 00 00	 mov	 ecx, OFFSET ?cmd_intp@@3VCInterpreter@@A ; cmd_intp
  00ebd	e8 00 00 00 00	 call	 ?AddCommand@CInterpreter@@QAEXQBDP6A_NAAVCCmdLine@@@Z00@Z ; CInterpreter::AddCommand

; 36   : CMD_REG(ethsend, "<string>", "send <string> in a Ethernet packet")

  00ec2	68 00 00 00 00	 push	 OFFSET ??_C@_0CD@GIPCAEGN@send?5?$DMstring?$DO?5in?5a?5Ethernet?5pack@
  00ec7	68 00 00 00 00	 push	 OFFSET ??_C@_08OOGHEFMC@?$DMstring?$DO?$AA@
  00ecc	68 00 00 00 00	 push	 OFFSET ?cmd_ethsend@@YA_NAAVCCmdLine@@@Z ; cmd_ethsend
  00ed1	68 00 00 00 00	 push	 OFFSET ??_C@_07PAECCOB@ethsend?$AA@
  00ed6	b9 00 00 00 00	 mov	 ecx, OFFSET ?cmd_intp@@3VCInterpreter@@A ; cmd_intp
  00edb	e8 00 00 00 00	 call	 ?AddCommand@CInterpreter@@QAEXQBDP6A_NAAVCCmdLine@@@Z00@Z ; CInterpreter::AddCommand

; 37   : CMD_REG(ethrx, "", "shows number of received packets")

  00ee0	68 00 00 00 00	 push	 OFFSET ??_C@_0CB@OFOKPEOK@shows?5number?5of?5received?5packets@
  00ee5	68 00 00 00 00	 push	 OFFSET ??_C@_00CNPNBAHC@?$AA@
  00eea	68 00 00 00 00	 push	 OFFSET ?cmd_ethrx@@YA_NAAVCCmdLine@@@Z ; cmd_ethrx
  00eef	68 00 00 00 00	 push	 OFFSET ??_C@_05FEFHBGJG@ethrx?$AA@
  00ef4	b9 00 00 00 00	 mov	 ecx, OFFSET ?cmd_intp@@3VCInterpreter@@A ; cmd_intp
  00ef9	e8 00 00 00 00	 call	 ?AddCommand@CInterpreter@@QAEXQBDP6A_NAAVCCmdLine@@@Z00@Z ; CInterpreter::AddCommand

; 38   : CMD_REG(shmoo, "", "shmoo vx xrange vy ymin yrange")

  00efe	68 00 00 00 00	 push	 OFFSET ??_C@_0BP@BNPMMADJ@shmoo?5vx?5xrange?5vy?5ymin?5yrange?$AA@
  00f03	68 00 00 00 00	 push	 OFFSET ??_C@_00CNPNBAHC@?$AA@
  00f08	68 00 00 00 00	 push	 OFFSET ?cmd_shmoo@@YA_NAAVCCmdLine@@@Z ; cmd_shmoo
  00f0d	68 00 00 00 00	 push	 OFFSET ??_C@_05CGLMJBE@shmoo?$AA@
  00f12	b9 00 00 00 00	 mov	 ecx, OFFSET ?cmd_intp@@3VCInterpreter@@A ; cmd_intp
  00f17	e8 00 00 00 00	 call	 ?AddCommand@CInterpreter@@QAEXQBDP6A_NAAVCCmdLine@@@Z00@Z ; CInterpreter::AddCommand

; 39   : CMD_REG(deser160, "", "align deser160")

  00f1c	68 00 00 00 00	 push	 OFFSET ??_C@_0P@MFIKDOFK@align?5deser160?$AA@
  00f21	68 00 00 00 00	 push	 OFFSET ??_C@_00CNPNBAHC@?$AA@
  00f26	68 00 00 00 00	 push	 OFFSET ?cmd_deser160@@YA_NAAVCCmdLine@@@Z ; cmd_deser160
  00f2b	68 00 00 00 00	 push	 OFFSET ??_C@_08DBOOECMD@deser160?$AA@
  00f30	b9 00 00 00 00	 mov	 ecx, OFFSET ?cmd_intp@@3VCInterpreter@@A ; cmd_intp
  00f35	e8 00 00 00 00	 call	 ?AddCommand@CInterpreter@@QAEXQBDP6A_NAAVCCmdLine@@@Z00@Z ; CInterpreter::AddCommand
; File c:\users\erich\documents\college\dtb_project\psi46test-master\psi46test-master\cmd.cpp

; 78   : 	CMD_REG(h, "", "simple help");

  00f3a	68 00 00 00 00	 push	 OFFSET ??_C@_0M@LKPDCNLD@simple?5help?$AA@
  00f3f	68 00 00 00 00	 push	 OFFSET ??_C@_00CNPNBAHC@?$AA@
  00f44	68 00 00 00 00	 push	 OFFSET ?cmd_h@@YA_NAAVCCmdLine@@@Z ; cmd_h
  00f49	68 00 00 00 00	 push	 OFFSET ??_C@_01BDACAMKP@h?$AA@
  00f4e	b9 00 00 00 00	 mov	 ecx, OFFSET ?cmd_intp@@3VCInterpreter@@A ; cmd_intp
  00f53	e8 00 00 00 00	 call	 ?AddCommand@CInterpreter@@QAEXQBDP6A_NAAVCCmdLine@@@Z00@Z ; CInterpreter::AddCommand

; 79   : 
; 80   : 	cmdHelp();

  00f58	e8 00 00 00 00	 call	 ?cmdHelp@@YAXXZ		; cmdHelp

; 81   : 
; 82   : 	cmd_intp.SetScriptPath(settings.scriptPath.c_str());

  00f5d	83 3d 2c 00 00
	00 10		 cmp	 DWORD PTR ?settings@@3VCSettings@@A+44, 16 ; 00000010H
  00f64	a1 18 00 00 00	 mov	 eax, DWORD PTR ?settings@@3VCSettings@@A+24
  00f69	73 05		 jae	 SHORT $LN15@cmd
  00f6b	b8 18 00 00 00	 mov	 eax, OFFSET ?settings@@3VCSettings@@A+24
$LN15@cmd:
  00f70	50		 push	 eax
  00f71	b9 00 00 00 00	 mov	 ecx, OFFSET ?cmd_intp@@3VCInterpreter@@A ; cmd_intp
  00f76	e8 00 00 00 00	 call	 ?SetScriptPath@CInterpreter@@QAEXQBD@Z ; CInterpreter::SetScriptPath
  00f7b	eb 03 8d 49 00	 npad	 5
$LL3@cmd:

; 83   : 
; 84   : 	// command loop
; 85   : 	while (true)
; 86   : 	{
; 87   : 		try
; 88   : 		{
; 89   : 			CMD_RUN(stdin);

  00f80	6a 00		 push	 0
  00f82	c7 45 fc 00 00
	00 00		 mov	 DWORD PTR __$EHRec$[ebp+12], 0
  00f89	e8 00 00 00 00	 call	 ___iob_func
  00f8e	50		 push	 eax
  00f8f	b9 00 00 00 00	 mov	 ecx, OFFSET ?cmd_intp@@3VCInterpreter@@A ; cmd_intp
  00f94	e8 00 00 00 00	 call	 ?run@CInterpreter@@QAE_NPAU_iobuf@@H@Z ; CInterpreter::run

; 97   : }

  00f99	8b 4d f4	 mov	 ecx, DWORD PTR __$EHRec$[ebp+4]
  00f9c	64 89 0d 00 00
	00 00		 mov	 DWORD PTR fs:0, ecx
  00fa3	59		 pop	 ecx
  00fa4	5f		 pop	 edi
  00fa5	5e		 pop	 esi
  00fa6	5b		 pop	 ebx
  00fa7	8b e5		 mov	 esp, ebp
  00fa9	5d		 pop	 ebp
  00faa	c3		 ret	 0
__catch$?cmd@@YAXXZ$0:

; 90   : 		{
; 91   : 			CMD_RUN(stdin);
; 92   : 			return;
; 93   : 		}
; 94   : 		catch (CRpcError e)

  00fab	8d 4d e8	 lea	 ecx, DWORD PTR _e$128402[ebp]
  00fae	e8 00 00 00 00	 call	 ?What@CRpcError@@QAEXXZ	; CRpcError::What

; 95   : 		{

  00fb3	b8 00 00 00 00	 mov	 eax, $LN9@cmd
  00fb8	c3		 ret	 0
$LN9@cmd:

; 96   : 			e.What();

  00fb9	eb c5		 jmp	 SHORT $LL3@cmd
_TEXT	ENDS
;	COMDAT text$x
text$x	SEGMENT
__ehhandler$?cmd@@YAXXZ:
  00000	8b 54 24 08	 mov	 edx, DWORD PTR [esp+8]
  00004	8d 42 0c	 lea	 eax, DWORD PTR [edx+12]
  00007	8b 4a e4	 mov	 ecx, DWORD PTR [edx-28]
  0000a	33 c8		 xor	 ecx, eax
  0000c	e8 00 00 00 00	 call	 @__security_check_cookie@4
  00011	b8 00 00 00 00	 mov	 eax, OFFSET __ehfuncinfo$?cmd@@YAXXZ
  00016	e9 00 00 00 00	 jmp	 ___CxxFrameHandler3
text$x	ENDS
?cmd@@YAXXZ ENDP					; cmd
END
